

HI-TECH Software PIC LITE Macro Assembler V9.82 build 9453 
                                                                                               Thu Nov 28 01:16:12 2013

HI-TECH Software Omniscient Code Generator (Lite mode) build 9453
     1  0000                     opt subtitle "HI-TECH Software Omniscient Code Generator (Lite mode) build 9453"
     2                           
     3                           opt pagewidth 120
     4                           
     5                           	opt lm
     6                           
     7                           	processor	16F819
     8                           clrc	macro
     9                           	bcf	3,0
    10  0000                     	endm
    11                           clrz	macro
    12                           	bcf	3,2
    13  0000                     	endm
    14                           setc	macro
    15                           	bsf	3,0
    16  0000                     	endm
    17                           setz	macro
    18                           	bsf	3,2
    19  0000                     	endm
    20                           skipc	macro
    21                           	btfss	3,0
    22  0000                     	endm
    23                           skipz	macro
    24                           	btfss	3,2
    25  0000                     	endm
    26                           skipnc	macro
    27                           	btfsc	3,0
    28  0000                     	endm
    29                           skipnz	macro
    30                           	btfsc	3,2
    31  0000                     	endm
    32  0000                     indf	equ	0
    33  0000                     indf0	equ	0
    34  0002                     pc	equ	2
    35  0002                     pcl	equ	2
    36  0003                     status	equ	3
    37  0004                     fsr	equ	4
    38  0004                     fsr0	equ	4
    39  0001                     c	equ	1
    40  0000                     z	equ	0
    41  000A                     pclath	equ	10
    42                           # 11 "main.c"
    43                           	psect config,class=CONFIG,delta=2 ;#
    44                           # 11 "main.c"
    45  2007  EF50               	dw 0xFFFC & 0xFFFB & 0xFFF7 & 0xFFDF & 0xFFFF & 0xFF7F & 0xFFFF & 0xFFFF & 0xFFFF & 0xF
                                 FFF & 0xEFFF ;#
    46                           	FNROOT	_main
    47                           	FNCALL	intlevel1,_isr
    48                           	global	intlevel1
    49                           	FNROOT	intlevel1
    50                           	global	_PORTA
    51                           psect	maintext,global,class=CODE,delta=2
    52                           global __pmaintext
    53  0011                     __pmaintext:
    54  0005                     _PORTA	set	5
    55                           	global	_PORTB
    56  0006                     _PORTB	set	6
    57                           	global	_CARRY
    58  0018                     _CARRY	set	24
    59                           	global	_GIE
    60  005F                     _GIE	set	95
    61                           	global	_TMR0IE
    62  005D                     _TMR0IE	set	93
    63                           	global	_TMR0IF
    64  005A                     _TMR0IF	set	90
    65                           	global	_ADCON1
    66  009F                     _ADCON1	set	159
    67                           	global	_TRISA
    68  0085                     _TRISA	set	133
    69                           	global	_TRISB
    70  0086                     _TRISB	set	134
    71                           	global	_IRCF0
    72  047C                     _IRCF0	set	1148
    73                           	global	_IRCF1
    74  047D                     _IRCF1	set	1149
    75                           	global	_IRCF2
    76  047E                     _IRCF2	set	1150
    77                           	global	_PS0
    78  0408                     _PS0	set	1032
    79                           	global	_PS1
    80  0409                     _PS1	set	1033
    81                           	global	_PS2
    82  040A                     _PS2	set	1034
    83                           	global	_PSA
    84  040B                     _PSA	set	1035
    85                           	global	_T0CS
    86  040D                     _T0CS	set	1037
    87                           	global	_nRBPU
    88  040F                     _nRBPU	set	1039
    89                           	global	_EEADR
    90  010D                     _EEADR	set	269
    91                           	global	_EEDATA
    92  010C                     _EEDATA	set	268
    93                           	global	_EECON1
    94  018C                     _EECON1	set	396
    95                           	global	_EECON2
    96  018D                     _EECON2	set	397
    97                           	global	_RD
    98  0C60                     _RD	set	3168
    99                           	global	_WR
   100  0C61                     _WR	set	3169
   101                           	global	_WREN
   102  0C62                     _WREN	set	3170
   103                           	file	"C:\Users\dhood\AppData\Local\Temp\s3p8."
   104                           	line	#
   105                           psect cinit,class=CODE,delta=2
   106                           global start_initialization
   107  0041                     start_initialization:
   108                           
   109                           psect cinit,class=CODE,delta=2
   110                           global end_of_initialization
   111                           
   112                           ;End of C runtime variable initialization code
   113                           
   114  0041                     end_of_initialization:
   115  0041  0183               clrf status
   116  0042  2811               ljmp _main	;jump to C main() function
   117                           psect	cstackCOMMON,class=COMMON,space=1
   118                           global __pcstackCOMMON
   119  0070                     __pcstackCOMMON:
   120                           	global	?_main
   121  0070                     ?_main:	; 0 bytes @ 0x0
   122                           	global	?_isr
   123  0070                     ?_isr:	; 0 bytes @ 0x0
   124                           	global	??_isr
   125  0070                     ??_isr:	; 0 bytes @ 0x0
   126  0070                     	ds	4
   127                           	global	??_main
   128  0074                     ??_main:	; 0 bytes @ 0x4
   129 ;;Data sizes: Strings 0, constant 0, data 0, bss 0, persistent 0 stack 0
   130 ;;Auto spaces:   Size  Autos    Used
   131 ;; COMMON          14      4       4
   132 ;; BANK0           80      0       0
   133 ;; BANK1           80      0       0
   134 ;; BANK2           80      0       0
   135                           
   136 ;;
   137 ;; Pointer list with targets:
   138                           
   139                           
   140                           
   141 ;;
   142 ;; Critical Paths under _main in COMMON
   143 ;;
   144 ;;   None.
   145 ;;
   146 ;; Critical Paths under _isr in COMMON
   147 ;;
   148 ;;   None.
   149 ;;
   150 ;; Critical Paths under _main in BANK0
   151 ;;
   152 ;;   None.
   153 ;;
   154 ;; Critical Paths under _isr in BANK0
   155 ;;
   156 ;;   None.
   157 ;;
   158 ;; Critical Paths under _main in BANK1
   159 ;;
   160 ;;   None.
   161 ;;
   162 ;; Critical Paths under _isr in BANK1
   163 ;;
   164 ;;   None.
   165 ;;
   166 ;; Critical Paths under _main in BANK2
   167 ;;
   168 ;;   None.
   169 ;;
   170 ;; Critical Paths under _isr in BANK2
   171 ;;
   172 ;;   None.
   173                           
   174 ;;
   175 ;;Main: autosize = 0, tempsize = 0, incstack = 0, save=0
   176 ;;
   177                           
   178 ;;
   179 ;;Call Graph Tables:
   180 ;;
   181 ;; ---------------------------------------------------------------------------------
   182 ;; (Depth) Function   	        Calls       Base Space   Used Autos Params    Refs
   183 ;; ---------------------------------------------------------------------------------
   184 ;; (0) _main                                                 0     0      0       0
   185 ;; ---------------------------------------------------------------------------------
   186 ;; Estimated maximum stack depth 0
   187 ;; ---------------------------------------------------------------------------------
   188 ;; (Depth) Function   	        Calls       Base Space   Used Autos Params    Refs
   189 ;; ---------------------------------------------------------------------------------
   190 ;; (1) _isr                                                  4     4      0       0
   191 ;;                                              0 COMMON     4     4      0
   192 ;; ---------------------------------------------------------------------------------
   193 ;; Estimated maximum stack depth 1
   194 ;; ---------------------------------------------------------------------------------
   195                           
   196 ;; Call Graph Graphs:
   197                           
   198 ;; _main (ROOT)
   199 ;;
   200 ;; _isr (ROOT)
   201 ;;
   202                           
   203 ;; Address spaces:
   204                           
   205 ;;Name               Size   Autos  Total    Cost      Usage
   206 ;;BITCOMMON            E      0       0       0        0.0%
   207 ;;EEDATA             100      0       0       0        0.0%
   208 ;;NULL                 0      0       0       0        0.0%
   209 ;;CODE                 0      0       0       0        0.0%
   210 ;;COMMON               E      4       4       1       28.6%
   211 ;;BITSFR0              0      0       0       1        0.0%
   212 ;;SFR0                 0      0       0       1        0.0%
   213 ;;BITSFR1              0      0       0       2        0.0%
   214 ;;SFR1                 0      0       0       2        0.0%
   215 ;;STACK                0      0       0       2        0.0%
   216 ;;BANK0               50      0       0       3        0.0%
   217 ;;BITBANK1            50      0       0       4        0.0%
   218 ;;BITSFR3              0      0       0       4        0.0%
   219 ;;SFR3                 0      0       0       4        0.0%
   220 ;;BANK1               50      0       0       5        0.0%
   221 ;;BITSFR2              0      0       0       5        0.0%
   222 ;;SFR2                 0      0       0       5        0.0%
   223 ;;BITBANK2            50      0       0       6        0.0%
   224 ;;BANK2               50      0       0       7        0.0%
   225 ;;ABS                  0      0       0       8        0.0%
   226 ;;BITBANK0            50      0       0       9        0.0%
   227 ;;DATA                 0      0       0      10        0.0%
   228                           
   229                           	global	_main
   230                           psect	maintext
   231                           
   232 ;; *************** function _main *****************
   233 ;; Defined at:
   234 ;;		line 13 in file "main.c"
   235 ;; Parameters:    Size  Location     Type
   236 ;;		None
   237 ;; Auto vars:     Size  Location     Type
   238 ;;		None
   239 ;; Return value:  Size  Location     Type
   240 ;;		None               void
   241 ;; Registers used:
   242 ;;		wreg, status,2
   243 ;; Tracked objects:
   244 ;;		On entry : 17F/0
   245 ;;		On exit  : 0/0
   246 ;;		Unchanged: 0/0
   247 ;; Data sizes:     COMMON   BANK0   BANK1   BANK2
   248 ;;      Params:         0       0       0       0
   249 ;;      Locals:         0       0       0       0
   250 ;;      Temps:          0       0       0       0
   251 ;;      Totals:         0       0       0       0
   252 ;;Total ram usage:        0 bytes
   253 ;; Hardware stack levels required when called:    1
   254 ;; This function calls:
   255 ;;		Nothing
   256 ;; This function is called by:
   257 ;;		Startup code after reset
   258 ;; This function uses a non-reentrant model
   259 ;;
   260                           psect	maintext
   261                           	file	"main.c"
   262                           	line	13
   263                           	global	__size_of_main
   264  001F                     	__size_of_main	equ	__end_of_main-_main
   265                           	
   266  0011                     _main:	
   267                           	opt	stack 7
   268                           ; Regs used in _main: [wreg+status,2]
   269                           	line	15
   270                           	
   271  0011                     l1282:	
   272                           ;main.c: 15: IRCF0 = 1;
   273  0011  1683               	bsf	status, 5	;RP0=1, select bank1
   274  0012  1303               	bcf	status, 6	;RP1=0, select bank1
   275  0013  160F               	bsf	(1148/8)^080h,(1148)&7
   276                           	line	16
   277                           ;main.c: 16: IRCF1 = 1;
   278  0014  168F               	bsf	(1149/8)^080h,(1149)&7
   279                           	line	17
   280                           ;main.c: 17: IRCF2 = 1;
   281  0015  170F               	bsf	(1150/8)^080h,(1150)&7
   282                           	line	20
   283                           	
   284  0016                     l1284:	
   285                           ;main.c: 20: ADCON1 = 0x06;
   286  0016  3006               	movlw	(06h)
   287  0017  009F               	movwf	(159)^080h	;volatile
   288                           	line	21
   289                           	
   290  0018                     l1286:	
   291                           ;main.c: 21: TRISA = 0;
   292  0018  0185               	clrf	(133)^080h	;volatile
   293                           	line	22
   294                           	
   295  0019                     l1288:	
   296                           ;main.c: 22: PORTA = 0b01010001;
   297  0019  3051               	movlw	(051h)
   298  001A  1283               	bcf	status, 5	;RP0=0, select bank0
   299  001B  1303               	bcf	status, 6	;RP1=0, select bank0
   300  001C  0085               	movwf	(5)	;volatile
   301                           	line	25
   302                           	
   303  001D                     l1290:	
   304                           ;main.c: 25: nRBPU = 1;
   305  001D  1683               	bsf	status, 5	;RP0=1, select bank1
   306  001E  1303               	bcf	status, 6	;RP1=0, select bank1
   307  001F  1781               	bsf	(1039/8)^080h,(1039)&7
   308                           	line	26
   309                           ;main.c: 26: TRISB = 0;
   310  0020  0186               	clrf	(134)^080h	;volatile
   311                           	line	27
   312                           	
   313  0021                     l1292:	
   314                           ;main.c: 27: PORTB = 0b01010001;
   315  0021  3051               	movlw	(051h)
   316  0022  1283               	bcf	status, 5	;RP0=0, select bank0
   317  0023  1303               	bcf	status, 6	;RP1=0, select bank0
   318  0024  0086               	movwf	(6)	;volatile
   319                           	line	30
   320                           	
   321  0025                     l1294:	
   322                           ;main.c: 30: T0CS = 0;
   323  0025  1683               	bsf	status, 5	;RP0=1, select bank1
   324  0026  1303               	bcf	status, 6	;RP1=0, select bank1
   325  0027  1281               	bcf	(1037/8)^080h,(1037)&7
   326                           	line	31
   327                           	
   328  0028                     l1296:	
   329                           ;main.c: 31: PSA = 0;
   330  0028  1181               	bcf	(1035/8)^080h,(1035)&7
   331                           	line	32
   332                           	
   333  0029                     l1298:	
   334                           ;main.c: 32: PS2 = 1;
   335  0029  1501               	bsf	(1034/8)^080h,(1034)&7
   336                           	line	33
   337                           	
   338  002A                     l1300:	
   339                           ;main.c: 33: PS1 = 1;
   340  002A  1481               	bsf	(1033/8)^080h,(1033)&7
   341                           	line	34
   342                           	
   343  002B                     l1302:	
   344                           ;main.c: 34: PS0 = 1;
   345  002B  1401               	bsf	(1032/8)^080h,(1032)&7
   346                           	line	35
   347                           	
   348  002C                     l1304:	
   349                           ;main.c: 35: TMR0IE = 1;
   350  002C  168B               	bsf	(93/8),(93)&7
   351                           	line	36
   352                           	
   353  002D                     l1306:	
   354                           ;main.c: 36: GIE = 1;
   355  002D  178B               	bsf	(95/8),(95)&7
   356                           	line	38
   357                           ;main.c: 38: for(;;);
   358                           	
   359  002E                     l447:	
   360  002E  282E               	goto	l447
   361                           	
   362  002F                     l448:	
   363                           	line	39
   364                           	
   365  002F                     l449:	
   366                           	global	start
   367  002F  2810               	ljmp	start
   368                           	opt stack 0
   369                           GLOBAL	__end_of_main
   370  0030                     	__end_of_main:
   371 ;; =============== function _main ends ============
   372                           
   373                           	signat	_main,88
   374                           	global	_isr
   375                           psect	text71,local,class=CODE,delta=2
   376                           global __ptext71
   377  0030                     __ptext71:
   378                           
   379 ;; *************** function _isr *****************
   380 ;; Defined at:
   381 ;;		line 41 in file "main.c"
   382 ;; Parameters:    Size  Location     Type
   383 ;;		None
   384 ;; Auto vars:     Size  Location     Type
   385 ;;		None
   386 ;; Return value:  Size  Location     Type
   387 ;;		None               void
   388 ;; Registers used:
   389 ;;		None
   390 ;; Tracked objects:
   391 ;;		On entry : 0/0
   392 ;;		On exit  : 0/0
   393 ;;		Unchanged: 0/0
   394 ;; Data sizes:     COMMON   BANK0   BANK1   BANK2
   395 ;;      Params:         0       0       0       0
   396 ;;      Locals:         0       0       0       0
   397 ;;      Temps:          4       0       0       0
   398 ;;      Totals:         4       0       0       0
   399 ;;Total ram usage:        4 bytes
   400 ;; Hardware stack levels used:    1
   401 ;; This function calls:
   402 ;;		Nothing
   403 ;; This function is called by:
   404 ;;		Interrupt level 1
   405 ;; This function uses a non-reentrant model
   406 ;;
   407                           psect	text71
   408                           	file	"main.c"
   409                           	line	41
   410                           	global	__size_of_isr
   411  0011                     	__size_of_isr	equ	__end_of_isr-_isr
   412                           	
   413  0030                     _isr:	
   414                           	opt	stack 7
   415                           ; Regs used in _isr: []
   416                           psect	intentry,class=CODE,delta=2
   417                           global __pintentry
   418  0004                     __pintentry:
   419                           global interrupt_function
   420  0004                     interrupt_function:
   421                           	global saved_w
   422  007E                     	saved_w	set	btemp+0
   423  0004  00FE               	movwf	saved_w
   424  0005  0E03               	swapf	status,w
   425  0006  00F0               	movwf	(??_isr+0)
   426  0007  0804               	movf	fsr0,w
   427  0008  00F1               	movwf	(??_isr+1)
   428  0009  080A               	movf	pclath,w
   429  000A  00F2               	movwf	(??_isr+2)
   430  000B  1283               	bcf	status, 5	;RP0=0, select bank0
   431  000C  1303               	bcf	status, 6	;RP1=0, select bank0
   432  000D  087F               	movf	btemp+1,w
   433  000E  00F3               	movwf	(??_isr+3)
   434  000F  2830               	ljmp	_isr
   435                           psect	text71
   436                           	line	42
   437                           	
   438  0030                     i1l1308:	
   439                           ;main.c: 42: if (TMR0IF)
   440  0030  1D0B               	btfss	(90/8),(90)&7
   441  0031  2833               	goto	u1_21
   442  0032  2834               	goto	u1_20
   443  0033                     u1_21:
   444  0033  2836               	goto	i1l453
   445  0034                     u1_20:
   446                           	line	44
   447                           	
   448  0034                     i1l1310:	
   449                           ;main.c: 43: {
   450                           ;main.c: 44: TMR0IF = 0;
   451  0034  110B               	bcf	(90/8),(90)&7
   452  0035  2836               	goto	i1l453
   453                           	line	47
   454                           	
   455  0036                     i1l452:	
   456                           	line	48
   457                           	
   458  0036                     i1l453:	
   459  0036  0873               	movf	(??_isr+3),w
   460  0037  00FF               	movwf	btemp+1
   461  0038  0872               	movf	(??_isr+2),w
   462  0039  008A               	movwf	pclath
   463  003A  0871               	movf	(??_isr+1),w
   464  003B  0084               	movwf	fsr0
   465  003C  0E70               	swapf	(??_isr+0)^0FFFFFF80h,w
   466  003D  0083               	movwf	status
   467  003E  0EFE               	swapf	saved_w,f
   468  003F  0E7E               	swapf	saved_w,w
   469  0040  0009               	retfie
   470                           	opt stack 0
   471                           GLOBAL	__end_of_isr
   472  0041                     	__end_of_isr:
   473 ;; =============== function _isr ends ============
   474                           
   475                           	signat	_isr,88
   476                           psect	text72,local,class=CODE,delta=2
   477                           global __ptext72
   478  0000                     __ptext72:
   479                           	global	btemp
   480  007E                     	btemp set 07Eh
   481                           
   482                           	DABS	1,126,2	;btemp
   483                           	global	wtemp0
   484  007E                     	wtemp0 set btemp


HI-TECH Software PICC Macro Assembler V9.82 build 9453 
Symbol Table                                                                                   Thu Nov 28 01:16:12 2013

                  _RD 0C60                    _WR 0C61                   l447 002E                   l448 002F  
                 l449 002F                   _GIE 005F                   _PS0 0408                   _PS1 0409  
                 _PS2 040A                   _PSA 040B                   _isr 0030                   fsr0 0004  
                l1300 002A                  l1302 002B                  l1304 002C                  l1306 002D  
                l1290 001D                  l1282 0011                  l1292 0021                  l1284 0016  
                l1294 0025                  l1286 0018                  l1296 0028                  l1288 0019  
                l1298 0029                  ?_isr 0070                  _T0CS 040D                  _WREN 0C62  
                u1_20 0034                  u1_21 0033                  _main 0011                  btemp 007E  
                start 0010                 ??_isr 0070                 ?_main 0070                 _EEADR 010D  
               _CARRY 0018                 _IRCF0 047C                 _IRCF1 047D                 _IRCF2 047E  
               i1l452 0036                 i1l453 0036                 _PORTA 0005                 _PORTB 0006  
               _TRISA 0085                 _TRISB 0086                 _nRBPU 040F                 pclath 000A  
               status 0003                 wtemp0 007E          __end_of_main 0030                ??_main 0074  
              _ADCON1 009F                _EEDATA 010C                _EECON1 018C                _EECON2 018D  
              i1l1310 0034                i1l1308 0030                _TMR0IE 005D                _TMR0IF 005A  
              saved_w 007E        __pcstackCOMMON 0070            __pmaintext 0011            __pintentry 0004  
        __size_of_isr 0011  end_of_initialization 0041   start_initialization 0041           __end_of_isr 0041  
   interrupt_function 0004              __ptext71 0030              __ptext72 0000         __size_of_main 001F  
            intlevel1 0000  
