MPASM  5.43                 CLOCKED.INPUT.ASM   2-20-2017  12:56:27         PAGE  1


LOC  OBJECT CODE     LINE SOURCE TEXT
  VALUE

                      00001 ; --- Test for clock speed and instruction ops
                      00002 
                      00003 
                      00004 ; Main entry point
                      00005 
                      00006         list    P=PIC16F819
                      00007 
                      00008 #include p16f819.inc
                      00001         LIST
                      00002 
                      00003 ;==========================================================================
                      00004 ;  MPASM PIC16F819 processor include
                      00005 ; 
                      00006 ;  (c) Copyright 1999-2011 Microchip Technology, All rights reserved
                      00007 ;==========================================================================
                      00008 
                      00442         LIST
                      00009 
                      00010 ; ------------------------------------------------------------------------------
                      00011 ; CONFIG
                      00012 ;       - Use internal oscillator, leaing all PORTB ports as I/O
                      00013 ;       - Disable watchdog timer
                      00014 ;
                      00015         ;__config       _INTRC_IO & _WDT_OFF
2007   3FEA           00016         __config        _HS_OSC & _WDT_OFF      ; External Crystal Oscillator - produces slightly more t
                            han two transistions per second
                      00017                                                 ; Was able to sucessfully run the chip with only the Xta
                            l directly connected to the
                      00018                                                 ; OSC1/OSC0 pins, no resistor, no capacitors!
                      00019 
                      00020         cblock  0x20            ; start addresses in user register space
  00000020            00021         W_TMP
  00000021            00022         ST_TMP
  00000022            00023         CNT1
  00000023            00024         CNT2
  00000024            00025         CNT3
  00000025            00026         CURVAL
                      00027         endc
                      00028 
                      00029 
                      00030 ; ------------------------------------------------------------------------------
                      00031 ; Main entry and RESET vector
                      00032 ;
                      00033         org     0x0000
0000   2???           00034         call    _SETUP          ; Init hardware
0001   2???           00035         goto    _MAIN           ; Jump to main code defined in Example.asm
                      00036 
                      00037 
                      00038 ; ------------------------------------------------------------------------------
                      00039 ; Interrupt vector
                      00040 ;
                      00041         org     0x0004
0004   2???           00042         goto    _SERVICE        ; Points to interrupt service routine
MPASM  5.43                 CLOCKED.INPUT.ASM   2-20-2017  12:56:27         PAGE  2


LOC  OBJECT CODE     LINE SOURCE TEXT
  VALUE

                      00043 
                      00044 
                      00045 ; ------------------------------------------------------------------------------
                      00046 ; Dispatcher for interrupt handlers
                      00047 ;
0005                  00048 _SERVICE:
0005   1283 1303      00049         banksel PORTA
0007   2???           00050         call    _SAVE_CONTEXT
                      00051 
                      00052         ; Assumes only one interrupt will be enabled at a time
0008                  00053 _CHECK_TMR0:
                      00054         ;btfsc  INTCON,TMR0IF   ; Check for Timer0 interrupt
                      00055         ;goto   _HANDLE_TMR0
0008                  00056 _CHECK_INT:
0008   188B           00057         btfsc   INTCON,INTF     ; Check for INT/RB0 interrupt
0009   2???           00058         goto    _HANDLE_INT
                      00059 
000A                  00060 _UNHANDLED:
                      00061 
000A                  00062 _EXIT_SERVICE:
000A   108B           00063         bcf     INTCON,INTF     ; clear the INT interrupt
                      00064         ;bcf    INTCON,TMR0IF   ; clear the TMR0 interrupt
                      00065 
000B   2???           00066         call    _RESTORE_CONTEXT
000C   0009           00067         retfie                  ; Service return
                      00068 
                      00069 
000D                  00070 _HANDLE_INT:
000D   1283 1303      00071         banksel CURVAL
000F   0BA5           00072         decfsz  CURVAL,F
0010   2???           00073         goto    _EXIT_SERVICE
                      00074         ; Reset to 64
0011   3040           00075         movlw   0x40
0012   00A5           00076         movwf   CURVAL
0013   2???           00077         goto    _EXIT_SERVICE
                      00078 
                      00079 
                      00080 ; ------------------------------------------------------------------------------
                      00081 ; Context SAVE/RESTORE routines
                      00082 ;
0014                  00083 _SAVE_CONTEXT:
0014   00A0           00084         movwf   W_TMP           ;Copy W to TEMP register
0015   0E03           00085         swapf   STATUS, W       ;Swap status to be saved into W
0016   0183           00086         clrf    STATUS          ;bank 0, regardless of current bank, Clears IRP,RP1,RP0
0017   00A1           00087         movwf   ST_TMP          ;Save status to bank zero STATUS_TEMP register
0018   0008           00088         return
                      00089 
0019                  00090 _RESTORE_CONTEXT:
0019   0E21           00091         SWAPF ST_TMP, W         ;Swap STATUS_TEMP register into W
                      00092                                 ;(sets bank to original state)
001A   0083           00093         MOVWF STATUS            ;Move W into STATUS register
001B   0EA0           00094         SWAPF W_TMP, F          ;Swap W_TEMP
001C   0E20           00095         SWAPF W_TMP, W          ;Swap W_TEMP into W
MPASM  5.43                 CLOCKED.INPUT.ASM   2-20-2017  12:56:27         PAGE  3


LOC  OBJECT CODE     LINE SOURCE TEXT
  VALUE

001D   0008           00096         return
                      00097 
                      00098 
                      00099 ; ------------------------------------------------------------------------------
                      00100 ; Initialize hardware
                      00101 ;
001E                  00102 _SETUP:
                      00103 ; Init clock to 8Mhz => 111
                      00104         ;banksel OSCCON         ; Bank 1, used for all other setup calls
                      00105         ;bsf    OSCCON, IRCF0
                      00106         ;bsf    OSCCON, IRCF1
                      00107         ;bsf    OSCCON, IRCF2
                      00108 
                      00109 ; Init I/O ports
001E   1683 1303      00110         banksel ADCON1
0020   3000           00111         movlw   0x00            ; 0:4 Analog
Message[302]: Register in operand not in bank 0.  Ensure that bank bits are correct.
0021   009F           00112         movwf   ADCON1
                      00113 
0022   1683 1303      00114         banksel TRISA
0024   30FF           00115         movlw   0xFF            ; PORTA - All input
Message[302]: Register in operand not in bank 0.  Ensure that bank bits are correct.
0025   0085           00116         movwf   TRISA
                      00117 
0026   1683 1303      00118         banksel TRISB
0028   3001           00119         movlw   0x01            ; PORTB - Input only on RB0
Message[302]: Register in operand not in bank 0.  Ensure that bank bits are correct.
0029   0086           00120         movwf   TRISB
                      00121 
                      00122 ; Configure interrupts
002A   1283 1303      00123         banksel INTCON
002C   138B           00124         bcf     INTCON,GIE      ; DISEnable interrupts globally
                      00125 
                      00126 ; Init and Clear PORTA
002D   1283 1303      00127         banksel PORTA
002F   0185           00128         clrf    PORTA
                      00129 
0030   1283 1303      00130         banksel CNT1
0032   01A2           00131         clrf    CNT1
0033   01A3           00132         clrf    CNT2
0034   01A4           00133         clrf    CNT3
                      00134 
                      00135         ; Init to 64 steps
0035   3040           00136         movlw   0x40
0036   00A5           00137         movwf   CURVAL
0037   0008           00138         return
                      00139 
                      00140 ; -------
                      00141 ; Subs
                      00142 ;
                      00143 
0038                  00144 _RB4_CLR:
0038   1206           00145         bcf     PORTB,4
MPASM  5.43                 CLOCKED.INPUT.ASM   2-20-2017  12:56:27         PAGE  4


LOC  OBJECT CODE     LINE SOURCE TEXT
  VALUE

0039   2???           00146         goto    _INIT_CNT1
                      00147 
                      00148 
                      00149 ; ------------------------------------------------------------------------------
                      00150 ; Main code loop
                      00151 ;
                      00152 ; RB4 drives LED
                      00153 ; RB0 clock input
                      00154 ;
                      00155 
003A                  00156 _MAIN:
003A   1283 1303      00157         banksel CURVAL
                      00158         ;comf   PORTA,F
003C   01A5           00159         clrf    CURVAL
                      00160 
003D                  00161 _LOOP:
003D   1283 1303      00162         banksel PORTB           ; Toggle RB4
003F   1A06           00163         btfsc   PORTB,4
0040   2???           00164         goto    _RB4_CLR
0041   1606           00165         bsf     PORTB,4
                      00166 
0042                  00167 _INIT_CNT1:
0042   1283 1303      00168         banksel CNT1            
0044   30FF           00169         movlw   0xFF            ; Load counter
0045   00A2           00170         movwf   CNT1
                      00171         
0046                  00172 _CNT1:  
0046   0BA2           00173         decfsz  CNT1,F
0047   2???           00174         goto    _INIT_CNT2
0048   2???           00175         goto    _END;
                      00176 
0049                  00177 _INIT_CNT2:
0049   1283 1303      00178         banksel CNT2
004B   30FF           00179         movlw   0xFF            ; Load counter
004C   00A3           00180         movwf   CNT2
                      00181 
004D                  00182 _CNT2:
004D   0BA3           00183         decfsz  CNT2,F
004E   2???           00184         goto    _INIT_CNT3
004F   2???           00185         goto    _CNT1
                      00186 
0050                  00187 _INIT_CNT3:
0050   1283 1303      00188         banksel CNT3
0052   300F           00189         movlw   0x0F            ; Load counter
0053   00A4           00190         movwf   CNT3
                      00191 
0054                  00192 _CNT3:
0054   0BA4           00193         decfsz  CNT3,F
0055   2???           00194         goto    _CNT3
0056   2???           00195         goto    _CNT2
                      00196 
0057                  00197 _END:
                      00198         ;bcf    PORTB,4
MPASM  5.43                 CLOCKED.INPUT.ASM   2-20-2017  12:56:27         PAGE  5


LOC  OBJECT CODE     LINE SOURCE TEXT
  VALUE

0057   2???           00199         goto    _LOOP
                      00200 
0058                  00201 _ENDLESSLOOP:
0058   0000           00202         nop
0059   2???           00203         goto    _ENDLESSLOOP
3FEA                  00204         end
MPASM  5.43                 CLOCKED.INPUT.ASM   2-20-2017  12:56:27         PAGE  6


SYMBOL TABLE
  LABEL                             VALUE 

ADCON0                            0000001F
ADCON1                            0000009F
ADCS0                             00000006
ADCS1                             00000007
ADCS2                             00000006
ADFM                              00000007
ADIE                              00000006
ADIF                              00000006
ADON                              00000000
ADRESH                            0000001E
ADRESL                            0000009E
BF                                00000000
C                                 00000000
CCP1CON                           00000017
CCP1IE                            00000002
CCP1IF                            00000002
CCP1M0                            00000000
CCP1M1                            00000001
CCP1M2                            00000002
CCP1M3                            00000003
CCP1X                             00000005
CCP1Y                             00000004
CCPR1                             00000015
CCPR1H                            00000016
CCPR1L                            00000015
CHS0                              00000003
CHS1                              00000004
CHS2                              00000005
CKE                               00000006
CKP                               00000004
CNT1                              00000022
CNT2                              00000023
CNT3                              00000024
CURVAL                            00000025
D                                 00000005
DATA_ADDRESS                      00000005
DC                                00000001
D_A                               00000005
D_NOT_A                           00000005
EEADR                             0000010D
EEADRH                            0000010F
EECON1                            0000018C
EECON2                            0000018D
EEDATA                            0000010C
EEDATH                            0000010E
EEIE                              00000004
EEIF                              00000004
EEPGD                             00000007
F                                 00000001
FREE                              00000004
FSR                               00000004
GIE                               00000007
GO                                00000002
MPASM  5.43                 CLOCKED.INPUT.ASM   2-20-2017  12:56:27         PAGE  7


SYMBOL TABLE
  LABEL                             VALUE 

GO_DONE                           00000002
GO_NOT_DONE                       00000002
I2C_DATA                          00000005
I2C_READ                          00000002
I2C_START                         00000003
I2C_STOP                          00000004
INDF                              00000000
INTCON                            0000000B
INTE                              00000004
INTEDG                            00000006
INTF                              00000001
IOFS                              00000002
IRCF0                             00000004
IRCF1                             00000005
IRCF2                             00000006
IRP                               00000007
NOT_A                             00000005
NOT_ADDRESS                       00000005
NOT_BO                            00000000
NOT_BOR                           00000000
NOT_DONE                          00000002
NOT_PD                            00000003
NOT_POR                           00000001
NOT_RBPU                          00000007
NOT_T1SYNC                        00000002
NOT_TO                            00000004
NOT_W                             00000002
NOT_WRITE                         00000002
OPTION_REG                        00000081
OSCCON                            0000008F
OSCTUNE                           00000090
P                                 00000004
PCFG0                             00000000
PCFG1                             00000001
PCFG2                             00000002
PCFG3                             00000003
PCL                               00000002
PCLATH                            0000000A
PCON                              0000008E
PEIE                              00000006
PIE1                              0000008C
PIE2                              0000008D
PIR1                              0000000C
PIR2                              0000000D
PORTA                             00000005
PORTB                             00000006
PR2                               00000092
PS0                               00000000
PS1                               00000001
PS2                               00000002
PSA                               00000003
R                                 00000002
RA0                               00000000
MPASM  5.43                 CLOCKED.INPUT.ASM   2-20-2017  12:56:27         PAGE  8


SYMBOL TABLE
  LABEL                             VALUE 

RA1                               00000001
RA2                               00000002
RA3                               00000003
RA4                               00000004
RA5                               00000005
RA6                               00000006
RA7                               00000007
RB0                               00000000
RB1                               00000001
RB2                               00000002
RB3                               00000003
RB4                               00000004
RB5                               00000005
RB6                               00000006
RB7                               00000007
RBIE                              00000003
RBIF                              00000000
RD                                00000000
READ_WRITE                        00000002
RP0                               00000005
RP1                               00000006
R_NOT_W                           00000002
R_W                               00000002
S                                 00000003
SMP                               00000007
SSPADD                            00000093
SSPBUF                            00000013
SSPCON                            00000014
SSPEN                             00000005
SSPIE                             00000003
SSPIF                             00000003
SSPM0                             00000000
SSPM1                             00000001
SSPM2                             00000002
SSPM3                             00000003
SSPOV                             00000006
SSPSTAT                           00000094
STATUS                            00000003
ST_TMP                            00000021
T0CS                              00000005
T0SE                              00000004
T1CKPS0                           00000004
T1CKPS1                           00000005
T1CON                             00000010
T1INSYNC                          00000002
T1OSCEN                           00000003
T2CKPS0                           00000000
T2CKPS1                           00000001
T2CON                             00000012
TMR0                              00000001
TMR0IE                            00000005
TMR0IF                            00000002
TMR1CS                            00000001
MPASM  5.43                 CLOCKED.INPUT.ASM   2-20-2017  12:56:27         PAGE  9


SYMBOL TABLE
  LABEL                             VALUE 

TMR1H                             0000000F
TMR1IE                            00000000
TMR1IF                            00000000
TMR1L                             0000000E
TMR1ON                            00000000
TMR2                              00000011
TMR2IE                            00000001
TMR2IF                            00000001
TMR2ON                            00000002
TOUTPS0                           00000003
TOUTPS1                           00000004
TOUTPS2                           00000005
TOUTPS3                           00000006
TRISA                             00000085
TRISA0                            00000000
TRISA1                            00000001
TRISA2                            00000002
TRISA3                            00000003
TRISA4                            00000004
TRISA5                            00000005
TRISA6                            00000006
TRISA7                            00000007
TRISB                             00000086
TRISB0                            00000000
TRISB1                            00000001
TRISB2                            00000002
TRISB3                            00000003
TRISB4                            00000004
TRISB5                            00000005
TRISB6                            00000006
TRISB7                            00000007
TUN0                              00000000
TUN1                              00000001
TUN2                              00000002
TUN3                              00000003
TUN4                              00000004
TUN5                              00000005
UA                                00000001
W                                 00000000
WCOL                              00000007
WR                                00000001
WREN                              00000002
WRERR                             00000003
W_TMP                             00000020
Z                                 00000002
_BODEN_OFF                        00003FBF
_BODEN_ON                         00003FFF
_BOREN_OFF                        00003FBF
_BOREN_ON                         00003FFF
_CCP1_RB2                         00003FFF
_CCP1_RB3                         00002FFF
_CCPMX_RB2                        00003FFF
_CCPMX_RB3                        00002FFF
MPASM  5.43                 CLOCKED.INPUT.ASM   2-20-2017  12:56:27         PAGE 10


SYMBOL TABLE
  LABEL                             VALUE 

_CHECK_INT                        00000008
_CHECK_TMR0                       00000008
_CNT1                             00000046
_CNT2                             0000004D
_CNT3                             00000054
_CONFIG                           00002007
_CPD_OFF                          00003FFF
_CPD_ON                           00003EFF
_CP_ALL                           00001FFF
_CP_OFF                           00003FFF
_CP_ON                            00001FFF
_DEBUG_OFF                        00003FFF
_DEBUG_ON                         000037FF
_DEVID1                           00002006
_END                              00000057
_ENDLESSLOOP                      00000058
_EXIT_SERVICE                     0000000A
_EXTCLK                           00003FEF
_EXTRC_CLKOUT                     00003FFF
_EXTRC_IO                         00003FFE
_FOSC_EC                          00003FEF
_FOSC_EXTRCCLK                    00003FFF
_FOSC_EXTRCIO                     00003FFE
_FOSC_HS                          00003FEE
_FOSC_INTOSCCLK                   00003FFD
_FOSC_INTOSCIO                    00003FFC
_FOSC_LP                          00003FEC
_FOSC_XT                          00003FED
_HANDLE_INT                       0000000D
_HS_OSC                           00003FEE
_IDLOC0                           00002000
_IDLOC1                           00002001
_IDLOC2                           00002002
_IDLOC3                           00002003
_INIT_CNT1                        00000042
_INIT_CNT2                        00000049
_INIT_CNT3                        00000050
_INTRC_CLKOUT                     00003FFD
_INTRC_IO                         00003FFC
_LOOP                             0000003D
_LP_OSC                           00003FEC
_LVP_OFF                          00003F7F
_LVP_ON                           00003FFF
_MAIN                             0000003A
_MCLRE_OFF                        00003FDF
_MCLRE_ON                         00003FFF
_MCLR_OFF                         00003FDF
_MCLR_ON                          00003FFF
_PWRTE_OFF                        00003FFF
_PWRTE_ON                         00003FF7
_RB4_CLR                          00000038
_RESTORE_CONTEXT                  00000019
_SAVE_CONTEXT                     00000014
MPASM  5.43                 CLOCKED.INPUT.ASM   2-20-2017  12:56:27         PAGE 11


SYMBOL TABLE
  LABEL                             VALUE 

_SERVICE                          00000005
_SETUP                            0000001E
_UNHANDLED                        0000000A
_WDTE_OFF                         00003FFB
_WDTE_ON                          00003FFF
_WDT_OFF                          00003FFB
_WDT_ON                           00003FFF
_WRT_1024                         00003BFF
_WRT_1536                         000039FF
_WRT_512                          00003DFF
_WRT_ENABLE_1024                  00003BFF
_WRT_ENABLE_1536                  000039FF
_WRT_ENABLE_512                   00003DFF
_WRT_ENABLE_OFF                   00003FFF
_WRT_OFF                          00003FFF
_XT_OSC                           00003FED
__16F819                          00000001

Errors   :     0
Warnings :     0 reported,     0 suppressed
Messages :     3 reported,     0 suppressed

