MPASM  5.43                 CLOCKED.INPUT.ASM   2-20-2017  22:51:10         PAGE  1


LOC  OBJECT CODE     LINE SOURCE TEXT
  VALUE

                      00001 ; --- Test for clock speed and instruction ops
                      00002 
                      00003 
                      00004 ; Main entry point
                      00005 
                      00006         list    P=PIC16F819
                      00007 
                      00008 #include p16f819.inc
                      00001         LIST
                      00002 
                      00003 ;==========================================================================
                      00004 ;  MPASM PIC16F819 processor include
                      00005 ; 
                      00006 ;  (c) Copyright 1999-2011 Microchip Technology, All rights reserved
                      00007 ;==========================================================================
                      00008 
                      00442         LIST
                      00009 
                      00010 ; ------------------------------------------------------------------------------
                      00011 ; CONFIG
                      00012 ;       - Use internal oscillator, leaing all PORTB ports as I/O
                      00013 ;       - Disable watchdog timer
                      00014 ;
                      00015         ;__config       _INTRC_IO & _WDT_OFF
2007   3FEA           00016         __config        _HS_OSC & _WDT_OFF      ; External Crystal Oscillator - produces slightly more t
                            han two transistions per second
                      00017                                                 ; Was able to sucessfully run the chip with only the Xta
                            l directly connected to the
                      00018                                                 ; OSC1/OSC0 pins, no resistor, no capacitors!
                      00019 
                      00020         cblock  0x20            ; start addresses in user register space
  00000020            00021         W_TMP
  00000021            00022         ST_TMP
  00000022            00023         CNT1
  00000023            00024         CNT2
  00000024            00025         CNT3
  00000025            00026         CLOCKVAL
  00000026            00027         ADVAL
  00000027            00028         SAMPDONE
                      00029         endc
                      00030 
                      00031 
                      00032 ; ------------------------------------------------------------------------------
                      00033 ; Main entry and RESET vector
                      00034 ;
                      00035         org     0x0000
0000   2???           00036         call    _SETUP          ; Init hardware
0001   2???           00037         goto    _MAIN           ; Jump to main code defined in Example.asm
                      00038 
                      00039 
                      00040 ; ------------------------------------------------------------------------------
                      00041 ; Interrupt vector
                      00042 ;
MPASM  5.43                 CLOCKED.INPUT.ASM   2-20-2017  22:51:10         PAGE  2


LOC  OBJECT CODE     LINE SOURCE TEXT
  VALUE

                      00043         org     0x0004
0004   2???           00044         goto    _SERVICE        ; Points to interrupt service routine
                      00045 
                      00046 
                      00047 ; ------------------------------------------------------------------------------
                      00048 ; Dispatcher for interrupt handlers
                      00049 ;
0005                  00050 _SERVICE:
0005   1283 1303      00051         banksel PORTA
0007   2???           00052         call    _SAVE_CONTEXT
                      00053 
                      00054         ; Assumes only one interrupt will be enabled at a time
0008                  00055 _CHECK_TMR0:
                      00056         ;btfsc  INTCON,TMR0IF   ; Check for Timer0 interrupt
                      00057         ;goto   _HANDLE_TMR0
0008                  00058 _CHECK_INT:
0008   188B           00059         btfsc   INTCON,INTF     ; Check for INT/RB0 interrupt
0009   2???           00060         goto    _HANDLE_INT
000A                  00061 _CHECK_ADI:
000A   1B0C           00062         btfsc   PIR1,ADIF
000B   2???           00063         goto    _HANDLE_ADI
                      00064 
000C                  00065 _UNHANDLED:
                      00066 
000C                  00067 _EXIT_SERVICE:
                      00068         ;bcf    INTCON,TMR0IF   ; clear the TMR0 interrupt
000C   2???           00069         call    _RESTORE_CONTEXT
000D   0009           00070         retfie                  ; Service return
                      00071 
                      00072 
000E                  00073 _HANDLE_INT:
000E   1283 1303      00074         banksel CLOCKVAL
0010   0BA5           00075         decfsz  CLOCKVAL,F
0011   2???           00076         goto    _HANDLE_INT_END
                      00077         ; Reset to 64
0012   3040           00078         movlw   0x40
0013   00A5           00079         movwf   CLOCKVAL
0014                  00080 _HANDLE_INT_END:
0014   108B           00081         bcf     INTCON,INTF     ; clear the INT interrupt
0015   2???           00082         goto    _EXIT_SERVICE
                      00083 
0016                  00084 _HANDLE_ADI:
0016   1283 1303      00085         banksel ADRESH          ; Copy current AD conversion to CURVAL
0018   081E           00086         movfw   ADRESH
                      00087 
0019   1283 1303      00088         banksel ADVAL
001B   00A6           00089         movwf   ADVAL
001C   130C           00090         bcf     PIR1,ADIF       ; clear ADI
001D   2???           00091         goto    _EXIT_SERVICE
                      00092 
                      00093 ; ------------------------------------------------------------------------------
                      00094 ; Context SAVE/RESTORE routines
                      00095 ;
MPASM  5.43                 CLOCKED.INPUT.ASM   2-20-2017  22:51:10         PAGE  3


LOC  OBJECT CODE     LINE SOURCE TEXT
  VALUE

001E                  00096 _SAVE_CONTEXT:
001E   00A0           00097         movwf   W_TMP           ;Copy W to TEMP register
001F   0E03           00098         swapf   STATUS, W       ;Swap status to be saved into W
0020   0183           00099         clrf    STATUS          ;bank 0, regardless of current bank, Clears IRP,RP1,RP0
0021   00A1           00100         movwf   ST_TMP          ;Save status to bank zero STATUS_TEMP register
0022   0008           00101         return
                      00102 
0023                  00103 _RESTORE_CONTEXT:
0023   0E21           00104         SWAPF ST_TMP, W         ;Swap STATUS_TEMP register into W
                      00105                                 ;(sets bank to original state)
0024   0083           00106         MOVWF STATUS            ;Move W into STATUS register
0025   0EA0           00107         SWAPF W_TMP, F          ;Swap W_TEMP
0026   0E20           00108         SWAPF W_TMP, W          ;Swap W_TEMP into W
0027   0008           00109         return
                      00110 
                      00111 
                      00112 ; ------------------------------------------------------------------------------
                      00113 ; Initialize hardware
                      00114 ;
0028                  00115 _SETUP:
                      00116 ; Init clock to 8Mhz => 111
                      00117         ;banksel OSCCON         ; Bank 1, used for all other setup calls
                      00118         ;bsf    OSCCON, IRCF0
                      00119         ;bsf    OSCCON, IRCF1
                      00120         ;bsf    OSCCON, IRCF2
                      00121 
                      00122 ; Init I/O ports
0028   1683 1303      00123         banksel ADCON1
002A   3000           00124         movlw   0x00            ; 0:4 Analog
Message[302]: Register in operand not in bank 0.  Ensure that bank bits are correct.
002B   009F           00125         movwf   ADCON1
                      00126 
002C   1683 1303      00127         banksel TRISA
002E   30FF           00128         movlw   0xFF            ; PORTA - All input
Message[302]: Register in operand not in bank 0.  Ensure that bank bits are correct.
002F   0085           00129         movwf   TRISA
                      00130 
0030   1683 1303      00131         banksel TRISB
0032   3001           00132         movlw   0x01            ; PORTB - Input only on RB0
Message[302]: Register in operand not in bank 0.  Ensure that bank bits are correct.
0033   0086           00133         movwf   TRISB
                      00134 
                      00135 ; Configure interrupts
0034   1683 1303      00136         banksel PIE1
Message[302]: Register in operand not in bank 0.  Ensure that bank bits are correct.
0036   170C           00137         bsf     PIE1,ADIE       ; Enable AD conversion interrupt
0037   1283 1303      00138         banksel INTCON
0039   160B           00139         bsf     INTCON,INTE     ; Enable external int on RB0
003A   170B           00140         bsf     INTCON,PEIE     ; Enable periferial interrups for ADI
003B   178B           00141         bsf     INTCON,GIE      ; Enable interrupts globally
                      00142 
003C   130C           00143         bcf     PIR1,ADIF       ; clear ADI
                      00144 
MPASM  5.43                 CLOCKED.INPUT.ASM   2-20-2017  22:51:10         PAGE  4


LOC  OBJECT CODE     LINE SOURCE TEXT
  VALUE

                      00145 ; Configure External interrupt
003D   1683 1303      00146         banksel OPTION_REG
003F   30C0           00147         movlw   0xC0            ; Rising edge
Message[302]: Register in operand not in bank 0.  Ensure that bank bits are correct.
0040   0081           00148         movwf   OPTION_REG
                      00149 
                      00150 ; Init and Clear PORTA and PORTB
0041   1283 1303      00151         banksel PORTA
0043   0185           00152         clrf    PORTA
0044   0186           00153         clrf    PORTB
                      00154 
0045   1283 1303      00155         banksel CNT1
0047   01A2           00156         clrf    CNT1
0048   01A3           00157         clrf    CNT2
0049   01A4           00158         clrf    CNT3
                      00159 
                      00160         ; Init to 64 steps
004A   3040           00161         movlw   0x40
004B   00A5           00162         movwf   CLOCKVAL
                      00163 
004C   01A6           00164         clrf    ADVAL
004D   01A7           00165         clrf    SAMPDONE
004E   1427           00166         bsf     SAMPDONE,0      ; Trigger sampling on start
                      00167 
                      00168 
                      00169 
                      00170 ;Setup AD Conversion on A0 for now
004F   1283 1303      00171         banksel ADCON0
0051   3081           00172         movlw   0x81    ; AD Enabled on A0, 32Tosc clock
0052   009F           00173         movwf   ADCON0
                      00174 
0053   1683 1303      00175         banksel ADCON1
0055   3000           00176         movlw   0x00    ; left justify since we're only going to read ADRESH for now
Message[302]: Register in operand not in bank 0.  Ensure that bank bits are correct.
0056   009F           00177         movwf   ADCON1
                      00178 
0057   0008           00179         return
                      00180 
                      00181 ; -------
                      00182 ; Subs
                      00183 ;
                      00184 
0058                  00185 _RB4_CLR:
0058   1206           00186         bcf     PORTB,4
                      00187         ;goto   _INIT_CNT1
0059   2???           00188         goto    _RB4_CLR_RET
                      00189 
005A                  00190 _RB5_CLR:
005A   1286           00191         bcf     PORTB,5
005B   2???           00192         goto    _RB5_CLR_RET
                      00193 
005C                  00194 _START_SAMPLE:
005C   1283 1303      00195         banksel ADCON0
MPASM  5.43                 CLOCKED.INPUT.ASM   2-20-2017  22:51:10         PAGE  5


LOC  OBJECT CODE     LINE SOURCE TEXT
  VALUE

005E   151F           00196         bsf     ADCON0,2        ; Start Sampling
                      00197                         ; End will be handled by interrupt
005F   1283 1303      00198         banksel SAMPDONE
0061   01A7           00199         clrf    SAMPDONE
0062   2???           00200         goto    _INIT_CNT1
                      00201 
                      00202 
                      00203 ; ------------------------------------------------------------------------------
                      00204 ; Main code loop
                      00205 ;
                      00206 ; RB4 drives LED
                      00207 ; RB0 clock input
                      00208 ;
                      00209 
0063                  00210 _MAIN:
                      00211 
                      00212 
0063                  00213 _LOOP:
                      00214 
0063                  00215 _UPDATE_RB4:
0063   0000           00216         nop
0064   1283 1303      00217         banksel CLOCKVAL
0066   1C25           00218         btfss   CLOCKVAL,0      ; Clock Counter
0067   2???           00219         goto    _RB4_CLR
0068   1606           00220         bsf     PORTB,4
                      00221 
0069                  00222 _RB4_CLR_RET:
                      00223         ;goto _UPDATE_RB4
                      00224 
0069   1283 1303      00225         banksel ADVAL
006B   0826           00226         movfw   ADVAL           ; AD Sample
                      00227         ;banksel PORTB
                      00228         ;movwf  PORTB           ; Dump the value onto Port B
                      00229 
006C   1283 1303      00230         banksel CNT1
006E   3CFE           00231         sublw   0xFE            ; Light up RB5 if ADVAL > literal
006F   1803           00232         btfsc   STATUS,C        ; Skip if borrow (inverted carry)
0070   2???           00233         goto    _RB5_CLR        ; no borrow -> ADVAL <= literal
0071   1686           00234         bsf     PORTB,5         ; borrow -> ADVAL > literal
                      00235 
0072                  00236 _RB5_CLR_RET:
                      00237         ;banksel        PORTB           ; Toggle RB4
                      00238         ;btfsc  PORTB,4
                      00239         ;goto   _RB4_CLR
                      00240         ;bsf    PORTB,4
                      00241 
0072                  00242 _CHECK_SAMPLE:
0072   1827           00243         btfsc   SAMPDONE,0
0073   2???           00244         goto    _START_SAMPLE
0074   191F           00245         btfsc   ADCON0,2
0075   2???           00246         goto    _INIT_CNT1
0076   1427           00247         bsf     SAMPDONE,0      ; Signal that sampling is done so that next loop we can restart sampling
                      00248 
MPASM  5.43                 CLOCKED.INPUT.ASM   2-20-2017  22:51:10         PAGE  6


LOC  OBJECT CODE     LINE SOURCE TEXT
  VALUE

                      00249         ;banksel ADRESH         ; Copy current AD conversion to CURVAL
                      00250         ;movfw  ADRESH
                      00251 
                      00252         ;banksel        CURVAL
                      00253         ;movlw  0xff
                      00254         ;movwf  CURVAL
                      00255 
                      00256 
0077                  00257 _INIT_CNT1:
0077   1283 1303      00258         banksel CNT1            
0079   30FF           00259         movlw   0xFF            ; Load counter
007A   00A2           00260         movwf   CNT1
                      00261         
007B                  00262 _CNT1:  
007B   0BA2           00263         decfsz  CNT1,F
007C   2???           00264         goto    _INIT_CNT2
007D   2???           00265         goto    _END
                      00266 
007E                  00267 _INIT_CNT2:
007E   1283 1303      00268         banksel CNT2
0080   3080           00269         movlw   0x80            ; Load counter
0081   00A3           00270         movwf   CNT2
                      00271 
0082                  00272 _CNT2:
0082   0BA3           00273         decfsz  CNT2,F
0083   2???           00274         goto    _INIT_CNT3
0084   2???           00275         goto    _CNT1
                      00276 
0085                  00277 _INIT_CNT3:
0085   1283 1303      00278         banksel CNT3
0087   3001           00279         movlw   0x01            ; Load counter
0088   00A4           00280         movwf   CNT3
                      00281 
0089                  00282 _CNT3:
0089   0BA4           00283         decfsz  CNT3,F
008A   2???           00284         goto    _CNT3
008B   2???           00285         goto    _CNT2
                      00286 
008C                  00287 _END:
                      00288         ;bcf    PORTB,4
008C   2???           00289         goto    _LOOP
                      00290 
008D                  00291 _ENDLESSLOOP:
008D   0000           00292         nop
008E   2???           00293         goto    _ENDLESSLOOP
3FEA                  00294         end
MPASM  5.43                 CLOCKED.INPUT.ASM   2-20-2017  22:51:10         PAGE  7


SYMBOL TABLE
  LABEL                             VALUE 

ADCON0                            0000001F
ADCON1                            0000009F
ADCS0                             00000006
ADCS1                             00000007
ADCS2                             00000006
ADFM                              00000007
ADIE                              00000006
ADIF                              00000006
ADON                              00000000
ADRESH                            0000001E
ADRESL                            0000009E
ADVAL                             00000026
BF                                00000000
C                                 00000000
CCP1CON                           00000017
CCP1IE                            00000002
CCP1IF                            00000002
CCP1M0                            00000000
CCP1M1                            00000001
CCP1M2                            00000002
CCP1M3                            00000003
CCP1X                             00000005
CCP1Y                             00000004
CCPR1                             00000015
CCPR1H                            00000016
CCPR1L                            00000015
CHS0                              00000003
CHS1                              00000004
CHS2                              00000005
CKE                               00000006
CKP                               00000004
CLOCKVAL                          00000025
CNT1                              00000022
CNT2                              00000023
CNT3                              00000024
D                                 00000005
DATA_ADDRESS                      00000005
DC                                00000001
D_A                               00000005
D_NOT_A                           00000005
EEADR                             0000010D
EEADRH                            0000010F
EECON1                            0000018C
EECON2                            0000018D
EEDATA                            0000010C
EEDATH                            0000010E
EEIE                              00000004
EEIF                              00000004
EEPGD                             00000007
F                                 00000001
FREE                              00000004
FSR                               00000004
GIE                               00000007
MPASM  5.43                 CLOCKED.INPUT.ASM   2-20-2017  22:51:10         PAGE  8


SYMBOL TABLE
  LABEL                             VALUE 

GO                                00000002
GO_DONE                           00000002
GO_NOT_DONE                       00000002
I2C_DATA                          00000005
I2C_READ                          00000002
I2C_START                         00000003
I2C_STOP                          00000004
INDF                              00000000
INTCON                            0000000B
INTE                              00000004
INTEDG                            00000006
INTF                              00000001
IOFS                              00000002
IRCF0                             00000004
IRCF1                             00000005
IRCF2                             00000006
IRP                               00000007
NOT_A                             00000005
NOT_ADDRESS                       00000005
NOT_BO                            00000000
NOT_BOR                           00000000
NOT_DONE                          00000002
NOT_PD                            00000003
NOT_POR                           00000001
NOT_RBPU                          00000007
NOT_T1SYNC                        00000002
NOT_TO                            00000004
NOT_W                             00000002
NOT_WRITE                         00000002
OPTION_REG                        00000081
OSCCON                            0000008F
OSCTUNE                           00000090
P                                 00000004
PCFG0                             00000000
PCFG1                             00000001
PCFG2                             00000002
PCFG3                             00000003
PCL                               00000002
PCLATH                            0000000A
PCON                              0000008E
PEIE                              00000006
PIE1                              0000008C
PIE2                              0000008D
PIR1                              0000000C
PIR2                              0000000D
PORTA                             00000005
PORTB                             00000006
PR2                               00000092
PS0                               00000000
PS1                               00000001
PS2                               00000002
PSA                               00000003
R                                 00000002
MPASM  5.43                 CLOCKED.INPUT.ASM   2-20-2017  22:51:10         PAGE  9


SYMBOL TABLE
  LABEL                             VALUE 

RA0                               00000000
RA1                               00000001
RA2                               00000002
RA3                               00000003
RA4                               00000004
RA5                               00000005
RA6                               00000006
RA7                               00000007
RB0                               00000000
RB1                               00000001
RB2                               00000002
RB3                               00000003
RB4                               00000004
RB5                               00000005
RB6                               00000006
RB7                               00000007
RBIE                              00000003
RBIF                              00000000
RD                                00000000
READ_WRITE                        00000002
RP0                               00000005
RP1                               00000006
R_NOT_W                           00000002
R_W                               00000002
S                                 00000003
SAMPDONE                          00000027
SMP                               00000007
SSPADD                            00000093
SSPBUF                            00000013
SSPCON                            00000014
SSPEN                             00000005
SSPIE                             00000003
SSPIF                             00000003
SSPM0                             00000000
SSPM1                             00000001
SSPM2                             00000002
SSPM3                             00000003
SSPOV                             00000006
SSPSTAT                           00000094
STATUS                            00000003
ST_TMP                            00000021
T0CS                              00000005
T0SE                              00000004
T1CKPS0                           00000004
T1CKPS1                           00000005
T1CON                             00000010
T1INSYNC                          00000002
T1OSCEN                           00000003
T2CKPS0                           00000000
T2CKPS1                           00000001
T2CON                             00000012
TMR0                              00000001
TMR0IE                            00000005
MPASM  5.43                 CLOCKED.INPUT.ASM   2-20-2017  22:51:10         PAGE 10


SYMBOL TABLE
  LABEL                             VALUE 

TMR0IF                            00000002
TMR1CS                            00000001
TMR1H                             0000000F
TMR1IE                            00000000
TMR1IF                            00000000
TMR1L                             0000000E
TMR1ON                            00000000
TMR2                              00000011
TMR2IE                            00000001
TMR2IF                            00000001
TMR2ON                            00000002
TOUTPS0                           00000003
TOUTPS1                           00000004
TOUTPS2                           00000005
TOUTPS3                           00000006
TRISA                             00000085
TRISA0                            00000000
TRISA1                            00000001
TRISA2                            00000002
TRISA3                            00000003
TRISA4                            00000004
TRISA5                            00000005
TRISA6                            00000006
TRISA7                            00000007
TRISB                             00000086
TRISB0                            00000000
TRISB1                            00000001
TRISB2                            00000002
TRISB3                            00000003
TRISB4                            00000004
TRISB5                            00000005
TRISB6                            00000006
TRISB7                            00000007
TUN0                              00000000
TUN1                              00000001
TUN2                              00000002
TUN3                              00000003
TUN4                              00000004
TUN5                              00000005
UA                                00000001
W                                 00000000
WCOL                              00000007
WR                                00000001
WREN                              00000002
WRERR                             00000003
W_TMP                             00000020
Z                                 00000002
_BODEN_OFF                        00003FBF
_BODEN_ON                         00003FFF
_BOREN_OFF                        00003FBF
_BOREN_ON                         00003FFF
_CCP1_RB2                         00003FFF
_CCP1_RB3                         00002FFF
MPASM  5.43                 CLOCKED.INPUT.ASM   2-20-2017  22:51:10         PAGE 11


SYMBOL TABLE
  LABEL                             VALUE 

_CCPMX_RB2                        00003FFF
_CCPMX_RB3                        00002FFF
_CHECK_ADI                        0000000A
_CHECK_INT                        00000008
_CHECK_SAMPLE                     00000072
_CHECK_TMR0                       00000008
_CNT1                             0000007B
_CNT2                             00000082
_CNT3                             00000089
_CONFIG                           00002007
_CPD_OFF                          00003FFF
_CPD_ON                           00003EFF
_CP_ALL                           00001FFF
_CP_OFF                           00003FFF
_CP_ON                            00001FFF
_DEBUG_OFF                        00003FFF
_DEBUG_ON                         000037FF
_DEVID1                           00002006
_END                              0000008C
_ENDLESSLOOP                      0000008D
_EXIT_SERVICE                     0000000C
_EXTCLK                           00003FEF
_EXTRC_CLKOUT                     00003FFF
_EXTRC_IO                         00003FFE
_FOSC_EC                          00003FEF
_FOSC_EXTRCCLK                    00003FFF
_FOSC_EXTRCIO                     00003FFE
_FOSC_HS                          00003FEE
_FOSC_INTOSCCLK                   00003FFD
_FOSC_INTOSCIO                    00003FFC
_FOSC_LP                          00003FEC
_FOSC_XT                          00003FED
_HANDLE_ADI                       00000016
_HANDLE_INT                       0000000E
_HANDLE_INT_END                   00000014
_HS_OSC                           00003FEE
_IDLOC0                           00002000
_IDLOC1                           00002001
_IDLOC2                           00002002
_IDLOC3                           00002003
_INIT_CNT1                        00000077
_INIT_CNT2                        0000007E
_INIT_CNT3                        00000085
_INTRC_CLKOUT                     00003FFD
_INTRC_IO                         00003FFC
_LOOP                             00000063
_LP_OSC                           00003FEC
_LVP_OFF                          00003F7F
_LVP_ON                           00003FFF
_MAIN                             00000063
_MCLRE_OFF                        00003FDF
_MCLRE_ON                         00003FFF
_MCLR_OFF                         00003FDF
MPASM  5.43                 CLOCKED.INPUT.ASM   2-20-2017  22:51:10         PAGE 12


SYMBOL TABLE
  LABEL                             VALUE 

_MCLR_ON                          00003FFF
_PWRTE_OFF                        00003FFF
_PWRTE_ON                         00003FF7
_RB4_CLR                          00000058
_RB4_CLR_RET                      00000069
_RB5_CLR                          0000005A
_RB5_CLR_RET                      00000072
_RESTORE_CONTEXT                  00000023
_SAVE_CONTEXT                     0000001E
_SERVICE                          00000005
_SETUP                            00000028
_START_SAMPLE                     0000005C
_UNHANDLED                        0000000C
_UPDATE_RB4                       00000063
_WDTE_OFF                         00003FFB
_WDTE_ON                          00003FFF
_WDT_OFF                          00003FFB
_WDT_ON                           00003FFF
_WRT_1024                         00003BFF
_WRT_1536                         000039FF
_WRT_512                          00003DFF
_WRT_ENABLE_1024                  00003BFF
_WRT_ENABLE_1536                  000039FF
_WRT_ENABLE_512                   00003DFF
_WRT_ENABLE_OFF                   00003FFF
_WRT_OFF                          00003FFF
_XT_OSC                           00003FED
__16F819                          00000001

Errors   :     0
Warnings :     0 reported,     0 suppressed
Messages :     6 reported,     0 suppressed

