

HI-TECH Software PIC LITE Macro Assembler V9.82 build 9453 
                                                                                               Thu Nov 28 23:33:33 2013

HI-TECH Software Omniscient Code Generator (Lite mode) build 9453
     1  0000                     opt subtitle "HI-TECH Software Omniscient Code Generator (Lite mode) build 9453"
     2                           
     3                           opt pagewidth 120
     4                           
     5                           	opt lm
     6                           
     7                           	processor	16F819
     8                           clrc	macro
     9                           	bcf	3,0
    10  0000                     	endm
    11                           clrz	macro
    12                           	bcf	3,2
    13  0000                     	endm
    14                           setc	macro
    15                           	bsf	3,0
    16  0000                     	endm
    17                           setz	macro
    18                           	bsf	3,2
    19  0000                     	endm
    20                           skipc	macro
    21                           	btfss	3,0
    22  0000                     	endm
    23                           skipz	macro
    24                           	btfss	3,2
    25  0000                     	endm
    26                           skipnc	macro
    27                           	btfsc	3,0
    28  0000                     	endm
    29                           skipnz	macro
    30                           	btfsc	3,2
    31  0000                     	endm
    32  0000                     indf	equ	0
    33  0000                     indf0	equ	0
    34  0002                     pc	equ	2
    35  0002                     pcl	equ	2
    36  0003                     status	equ	3
    37  0004                     fsr	equ	4
    38  0004                     fsr0	equ	4
    39  0001                     c	equ	1
    40  0000                     z	equ	0
    41  000A                     pclath	equ	10
    42                           # 17 "main.c"
    43                           	psect config,class=CONFIG,delta=2 ;#
    44                           # 17 "main.c"
    45  2007  EF62               	dw 0xFFEE & 0xFFFB & 0xFFF7 & 0xFFFF & 0xFFFF & 0xFF7F & 0xFFFF & 0xFFFF & 0xFFFF & 0xF
                                 FFF & 0xEFFF ;#
    46                           	FNCALL	_main,___ftdiv
    47                           	FNCALL	_main,___lwtoft
    48                           	FNCALL	_main,___ftmul
    49                           	FNCALL	_main,_round
    50                           	FNCALL	_main,___fttol
    51                           	FNCALL	_main,_update_duty
    52                           	FNCALL	_round,_trunc
    53                           	FNCALL	_round,___ftneg
    54                           	FNCALL	_round,___ftadd
    55                           	FNCALL	_trunc,_frexp
    56                           	FNCALL	_trunc,___fttol
    57                           	FNCALL	_trunc,___altoft
    58                           	FNCALL	___altoft,___ftpack
    59                           	FNCALL	___lwtoft,___ftpack
    60                           	FNCALL	___ftmul,___ftpack
    61                           	FNCALL	___ftdiv,___ftpack
    62                           	FNCALL	___ftadd,___ftpack
    63                           	FNROOT	_main
    64                           	FNCALL	_isr,_advance_wave
    65                           	FNCALL	_advance_wave,i1_update_duty
    66                           	FNCALL	intlevel1,_isr
    67                           	global	intlevel1
    68                           	FNROOT	intlevel1
    69                           	global	_freq
    70                           	global	_sample_rate
    71                           	global	_duty_max2
    72                           	global	_duty_max
    73                           psect	idataBANK0,class=CODE,space=0,delta=2
    74                           global __pidataBANK0
    75  0696                     __pidataBANK0:
    76                           	file	"main.c"
    77                           	line	22
    78                           
    79                           ;initializer for _freq
    80  0696  3400               	retlw	0x0
    81  0697  34DC               	retlw	0xdc
    82  0698  3443               	retlw	0x43
    83                           
    84                           	line	23
    85                           
    86                           ;initializer for _sample_rate
    87                           ;main.c: 17: asm("\tpsect config,class=CONFIG,delta=2"); asm("\tdw ""0xFFEE & 0xFFFB & 0
                                 xFFF7 & 0xFFFF & 0xFFFF & 0xFF7F & 0xFFFF & 0xFFFF & 0xFFFF & 0xFFFF & 0xEFFF");
    88                           ;main.c: 19: static unsigned int duty;
    89                           ;main.c: 20: static unsigned int delta;
    90                           ;main.c: 22: static double freq = 440;
    91  0699  3497               	retlw	0x97
    92  069A  3498               	retlw	0x98
    93  069B  3446               	retlw	0x46
    94                           
    95                           	line	25
    96                           
    97                           ;initializer for _duty_max2
    98  069C  34F0               	retlw	0F0h
    99  069D  343F               	retlw	03Fh
   100                           
   101                           psect	idataCOMMON,class=CODE,space=0,delta=2
   102                           global __pidataCOMMON
   103  069E                     __pidataCOMMON:
   104                           	line	24
   105                           
   106                           ;initializer for _duty_max
   107  069E  34FF               	retlw	0FFh
   108  069F  3403               	retlw	03h
   109                           
   110                           	global	_errno
   111                           	global	_duty
   112                           psect	nvBANK0,class=BANK0,space=1
   113                           global __pnvBANK0
   114  0065                     __pnvBANK0:
   115  0065                     _duty:
   116  0065                            ds      2
   117                           
   118                           	global	_delta
   119                           psect	nvCOMMON,class=COMMON,space=1
   120                           global __pnvCOMMON
   121  0078                     __pnvCOMMON:
   122  0078                     _delta:
   123  0078                            ds      2
   124                           
   125                           	global	_CCPR1L
   126  0015                     _CCPR1L	set	21
   127                           	global	_PORTA
   128  0005                     _PORTA	set	5
   129                           	global	_CARRY
   130  0018                     _CARRY	set	24
   131                           	global	_CCP1M2
   132  00BA                     _CCP1M2	set	186
   133                           	global	_CCP1M3
   134  00BB                     _CCP1M3	set	187
   135                           	global	_CCP1X
   136  00BD                     _CCP1X	set	189
   137                           	global	_CCP1Y
   138  00BC                     _CCP1Y	set	188
   139                           	global	_GIE
   140  005F                     _GIE	set	95
   141                           	global	_T2CKPS0
   142  0090                     _T2CKPS0	set	144
   143                           	global	_T2CKPS1
   144  0091                     _T2CKPS1	set	145
   145                           	global	_TMR0IE
   146  005D                     _TMR0IE	set	93
   147                           	global	_TMR0IF
   148  005A                     _TMR0IF	set	90
   149                           	global	_TMR2ON
   150  0092                     _TMR2ON	set	146
   151                           	global	_ADCON1
   152  009F                     _ADCON1	set	159
   153                           	global	_PR2
   154  0092                     _PR2	set	146
   155                           	global	_TRISA
   156  0085                     _TRISA	set	133
   157                           	global	_TRISB
   158  0086                     _TRISB	set	134
   159                           	global	_IRCF0
   160  047C                     _IRCF0	set	1148
   161                           	global	_IRCF1
   162  047D                     _IRCF1	set	1149
   163                           	global	_IRCF2
   164  047E                     _IRCF2	set	1150
   165                           	global	_T0CS
   166  040D                     _T0CS	set	1037
   167                           	global	_EEADR
   168  010D                     _EEADR	set	269
   169                           	global	_EEDATA
   170  010C                     _EEDATA	set	268
   171                           	global	_EECON1
   172  018C                     _EECON1	set	396
   173                           	global	_EECON2
   174  018D                     _EECON2	set	397
   175                           	global	_RD
   176  0C60                     _RD	set	3168
   177                           	global	_WR
   178  0C61                     _WR	set	3169
   179                           	global	_WREN
   180  0C62                     _WREN	set	3170
   181                           	file	"C:\Users\dhood\AppData\Local\Temp\s3o0."
   182                           	line	#
   183                           psect cinit,class=CODE,delta=2
   184                           global start_initialization
   185  0645                     start_initialization:
   186                           
   187                           psect	bssCOMMON,class=COMMON,space=1
   188                           global __pbssCOMMON
   189  007A                     __pbssCOMMON:
   190  007A                     _errno:
   191  007A                            ds      2
   192                           
   193                           psect	dataCOMMON,class=COMMON,space=1
   194                           global __pdataCOMMON
   195  007C                     __pdataCOMMON:
   196                           	file	"main.c"
   197  007C                     _duty_max:
   198  007C                            ds      2
   199                           
   200                           psect	dataBANK0,class=BANK0,space=1
   201                           global __pdataBANK0
   202  005D                     __pdataBANK0:
   203                           	file	"main.c"
   204                           	line	22
   205  005D                     _freq:
   206  005D                            ds      3
   207                           
   208                           psect	dataBANK0
   209                           	file	"main.c"
   210                           	line	23
   211  0060                     _sample_rate:
   212  0060                            ds      3
   213                           
   214                           psect	dataBANK0
   215                           	file	"main.c"
   216                           	line	25
   217  0063                     _duty_max2:
   218  0063                            ds      2
   219                           
   220                           ; Clear objects allocated to COMMON
   221                           psect cinit,class=CODE,delta=2
   222  0645  01FA               	clrf	((__pbssCOMMON)+0)&07Fh
   223  0646  01FB               	clrf	((__pbssCOMMON)+1)&07Fh
   224                           ; Initialize objects allocated to BANK0
   225                           	global __pidataBANK0
   226                           psect cinit,class=CODE,delta=2
   227  0647  2696               	fcall	__pidataBANK0+0		;fetch initializer
   228  0648  00DD               	movwf	__pdataBANK0+0&07fh		
   229  0649  2697               	fcall	__pidataBANK0+1		;fetch initializer
   230  064A  00DE               	movwf	__pdataBANK0+1&07fh		
   231  064B  2698               	fcall	__pidataBANK0+2		;fetch initializer
   232  064C  00DF               	movwf	__pdataBANK0+2&07fh		
   233  064D  2699               	fcall	__pidataBANK0+3		;fetch initializer
   234  064E  00E0               	movwf	__pdataBANK0+3&07fh		
   235  064F  269A               	fcall	__pidataBANK0+4		;fetch initializer
   236  0650  00E1               	movwf	__pdataBANK0+4&07fh		
   237  0651  269B               	fcall	__pidataBANK0+5		;fetch initializer
   238  0652  00E2               	movwf	__pdataBANK0+5&07fh		
   239  0653  269C               	fcall	__pidataBANK0+6		;fetch initializer
   240  0654  00E3               	movwf	__pdataBANK0+6&07fh		
   241  0655  269D               	fcall	__pidataBANK0+7		;fetch initializer
   242  0656  00E4               	movwf	__pdataBANK0+7&07fh		
   243                           ; Initialize objects allocated to COMMON
   244                           	global __pidataCOMMON
   245                           psect cinit,class=CODE,delta=2
   246  0657  269E               	fcall	__pidataCOMMON+0		;fetch initializer
   247  0658  00FC               	movwf	__pdataCOMMON+0&07fh		
   248  0659  269F               	fcall	__pidataCOMMON+1		;fetch initializer
   249  065A  00FD               	movwf	__pdataCOMMON+1&07fh		
   250                           psect cinit,class=CODE,delta=2
   251                           global end_of_initialization
   252                           
   253                           ;End of C runtime variable initialization code
   254                           
   255  065B                     end_of_initialization:
   256  065B  0183               clrf status
   257  065C  2C24               ljmp _main	;jump to C main() function
   258                           psect	cstackCOMMON,class=COMMON,space=1
   259                           global __pcstackCOMMON
   260  0070                     __pcstackCOMMON:
   261                           	global	?_main
   262  0070                     ?_main:	; 0 bytes @ 0x0
   263                           	global	?_advance_wave
   264  0070                     ?_advance_wave:	; 0 bytes @ 0x0
   265                           	global	?_isr
   266  0070                     ?_isr:	; 0 bytes @ 0x0
   267                           	global	?i1_update_duty
   268  0070                     ?i1_update_duty:	; 0 bytes @ 0x0
   269                           	global	i1update_duty@value
   270  0070                     i1update_duty@value:	; 2 bytes @ 0x0
   271  0070                     	ds	2
   272                           	global	??_advance_wave
   273  0072                     ??_advance_wave:	; 0 bytes @ 0x2
   274                           	global	??i1_update_duty
   275  0072                     ??i1_update_duty:	; 0 bytes @ 0x2
   276  0072                     	ds	2
   277                           	global	??_isr
   278  0074                     ??_isr:	; 0 bytes @ 0x4
   279  0074                     	ds	4
   280                           psect	cstackBANK0,class=BANK0,space=1
   281                           global __pcstackBANK0
   282  0020                     __pcstackBANK0:
   283                           	global	?_update_duty
   284  0020                     ?_update_duty:	; 0 bytes @ 0x0
   285                           	global	?_frexp
   286  0020                     ?_frexp:	; 3 bytes @ 0x0
   287                           	global	?___ftpack
   288  0020                     ?___ftpack:	; 3 bytes @ 0x0
   289                           	global	update_duty@value
   290  0020                     update_duty@value:	; 2 bytes @ 0x0
   291                           	global	frexp@value
   292  0020                     frexp@value:	; 3 bytes @ 0x0
   293                           	global	___ftpack@arg
   294  0020                     ___ftpack@arg:	; 3 bytes @ 0x0
   295  0020                     	ds	2
   296                           	global	??_update_duty
   297  0022                     ??_update_duty:	; 0 bytes @ 0x2
   298  0022                     	ds	1
   299                           	global	frexp@eptr
   300  0023                     frexp@eptr:	; 1 bytes @ 0x3
   301                           	global	___ftpack@exp
   302  0023                     ___ftpack@exp:	; 1 bytes @ 0x3
   303  0023                     	ds	1
   304                           	global	??_frexp
   305  0024                     ??_frexp:	; 0 bytes @ 0x4
   306                           	global	___ftpack@sign
   307  0024                     ___ftpack@sign:	; 1 bytes @ 0x4
   308  0024                     	ds	1
   309                           	global	??___ftpack
   310  0025                     ??___ftpack:	; 0 bytes @ 0x5
   311  0025                     	ds	3
   312                           	global	?___fttol
   313  0028                     ?___fttol:	; 4 bytes @ 0x8
   314                           	global	___fttol@f1
   315  0028                     ___fttol@f1:	; 3 bytes @ 0x8
   316  0028                     	ds	4
   317                           	global	??___fttol
   318  002C                     ??___fttol:	; 0 bytes @ 0xC
   319  002C                     	ds	4
   320                           	global	___fttol@sign1
   321  0030                     ___fttol@sign1:	; 1 bytes @ 0x10
   322  0030                     	ds	1
   323                           	global	___fttol@lval
   324  0031                     ___fttol@lval:	; 4 bytes @ 0x11
   325  0031                     	ds	4
   326                           	global	___fttol@exp1
   327  0035                     ___fttol@exp1:	; 1 bytes @ 0x15
   328  0035                     	ds	1
   329                           	global	?___ftdiv
   330  0036                     ?___ftdiv:	; 3 bytes @ 0x16
   331                           	global	?___ftneg
   332  0036                     ?___ftneg:	; 3 bytes @ 0x16
   333                           	global	?___lwtoft
   334  0036                     ?___lwtoft:	; 3 bytes @ 0x16
   335                           	global	___lwtoft@c
   336  0036                     ___lwtoft@c:	; 2 bytes @ 0x16
   337                           	global	___ftdiv@f2
   338  0036                     ___ftdiv@f2:	; 3 bytes @ 0x16
   339                           	global	___ftneg@f1
   340  0036                     ___ftneg@f1:	; 3 bytes @ 0x16
   341  0036                     	ds	3
   342                           	global	??___ftneg
   343  0039                     ??___ftneg:	; 0 bytes @ 0x19
   344                           	global	??___lwtoft
   345  0039                     ??___lwtoft:	; 0 bytes @ 0x19
   346                           	global	?___altoft
   347  0039                     ?___altoft:	; 3 bytes @ 0x19
   348                           	global	___ftdiv@f1
   349  0039                     ___ftdiv@f1:	; 3 bytes @ 0x19
   350                           	global	___altoft@c
   351  0039                     ___altoft@c:	; 4 bytes @ 0x19
   352  0039                     	ds	3
   353                           	global	??___ftdiv
   354  003C                     ??___ftdiv:	; 0 bytes @ 0x1C
   355  003C                     	ds	1
   356                           	global	??___altoft
   357  003D                     ??___altoft:	; 0 bytes @ 0x1D
   358  003D                     	ds	2
   359                           	global	___altoft@exp
   360  003F                     ___altoft@exp:	; 1 bytes @ 0x1F
   361  003F                     	ds	1
   362                           	global	___ftdiv@cntr
   363  0040                     ___ftdiv@cntr:	; 1 bytes @ 0x20
   364                           	global	___altoft@sign
   365  0040                     ___altoft@sign:	; 1 bytes @ 0x20
   366  0040                     	ds	1
   367                           	global	?___ftadd
   368  0041                     ?___ftadd:	; 3 bytes @ 0x21
   369                           	global	___ftadd@f1
   370  0041                     ___ftadd@f1:	; 3 bytes @ 0x21
   371                           	global	___ftdiv@f3
   372  0041                     ___ftdiv@f3:	; 3 bytes @ 0x21
   373  0041                     	ds	3
   374                           	global	___ftdiv@exp
   375  0044                     ___ftdiv@exp:	; 1 bytes @ 0x24
   376                           	global	___ftadd@f2
   377  0044                     ___ftadd@f2:	; 3 bytes @ 0x24
   378  0044                     	ds	1
   379                           	global	___ftdiv@sign
   380  0045                     ___ftdiv@sign:	; 1 bytes @ 0x25
   381  0045                     	ds	1
   382                           	global	?___ftmul
   383  0046                     ?___ftmul:	; 3 bytes @ 0x26
   384                           	global	___ftmul@f1
   385  0046                     ___ftmul@f1:	; 3 bytes @ 0x26
   386  0046                     	ds	1
   387                           	global	??___ftadd
   388  0047                     ??___ftadd:	; 0 bytes @ 0x27
   389  0047                     	ds	2
   390                           	global	___ftmul@f2
   391  0049                     ___ftmul@f2:	; 3 bytes @ 0x29
   392  0049                     	ds	2
   393                           	global	___ftadd@sign
   394  004B                     ___ftadd@sign:	; 1 bytes @ 0x2B
   395  004B                     	ds	1
   396                           	global	??___ftmul
   397  004C                     ??___ftmul:	; 0 bytes @ 0x2C
   398                           	global	___ftadd@exp2
   399  004C                     ___ftadd@exp2:	; 1 bytes @ 0x2C
   400  004C                     	ds	1
   401                           	global	___ftadd@exp1
   402  004D                     ___ftadd@exp1:	; 1 bytes @ 0x2D
   403  004D                     	ds	1
   404                           	global	?_trunc
   405  004E                     ?_trunc:	; 3 bytes @ 0x2E
   406                           	global	trunc@x
   407  004E                     trunc@x:	; 3 bytes @ 0x2E
   408  004E                     	ds	2
   409                           	global	___ftmul@exp
   410  0050                     ___ftmul@exp:	; 1 bytes @ 0x30
   411  0050                     	ds	1
   412                           	global	??_trunc
   413  0051                     ??_trunc:	; 0 bytes @ 0x31
   414                           	global	___ftmul@f3_as_product
   415  0051                     ___ftmul@f3_as_product:	; 3 bytes @ 0x31
   416  0051                     	ds	1
   417                           	global	trunc@i
   418  0052                     trunc@i:	; 3 bytes @ 0x32
   419  0052                     	ds	2
   420                           	global	___ftmul@cntr
   421  0054                     ___ftmul@cntr:	; 1 bytes @ 0x34
   422  0054                     	ds	1
   423                           	global	___ftmul@sign
   424  0055                     ___ftmul@sign:	; 1 bytes @ 0x35
   425                           	global	trunc@expon
   426  0055                     trunc@expon:	; 2 bytes @ 0x35
   427  0055                     	ds	2
   428                           	global	?_round
   429  0057                     ?_round:	; 3 bytes @ 0x37
   430                           	global	round@x
   431  0057                     round@x:	; 3 bytes @ 0x37
   432  0057                     	ds	3
   433                           	global	??_round
   434  005A                     ??_round:	; 0 bytes @ 0x3A
   435                           	global	round@f
   436  005A                     round@f:	; 3 bytes @ 0x3A
   437  005A                     	ds	3
   438                           	global	??_main
   439  005D                     ??_main:	; 0 bytes @ 0x3D
   440 ;;Data sizes: Strings 0, constant 0, data 10, bss 2, persistent 4 stack 0
   441 ;;Auto spaces:   Size  Autos    Used
   442 ;; COMMON          14      8      14
   443 ;; BANK0           80     61      71
   444 ;; BANK1           80      0       0
   445 ;; BANK2           80      0       0
   446                           
   447 ;;
   448 ;; Pointer list with targets:
   449                           
   450 ;; ?___ftpack	float  size(1) Largest target is 0
   451 ;;
   452 ;; ?___altoft	float  size(1) Largest target is 0
   453 ;;
   454 ;; ?_frexp	float  size(1) Largest target is 0
   455 ;;
   456 ;; ?___ftadd	float  size(1) Largest target is 0
   457 ;;
   458 ;; ?___ftneg	float  size(1) Largest target is 0
   459 ;;
   460 ;; ?_trunc	float  size(1) Largest target is 0
   461 ;;
   462 ;; ?___fttol	long  size(1) Largest target is 0
   463 ;;
   464 ;; ?___ftdiv	float  size(1) Largest target is 0
   465 ;;
   466 ;; ?___ftmul	float  size(1) Largest target is 0
   467 ;;
   468 ;; ?___lwtoft	float  size(1) Largest target is 0
   469 ;;
   470 ;; ?_round	float  size(1) Largest target is 0
   471 ;;
   472 ;; frexp@eptr	PTR int  size(1) Largest target is 2
   473 ;;		 -> trunc@expon(BANK0[2]), 
   474 ;;
   475                           
   476                           
   477 ;;
   478 ;; Critical Paths under _main in COMMON
   479 ;;
   480 ;;   None.
   481 ;;
   482 ;; Critical Paths under _isr in COMMON
   483 ;;
   484 ;;   _isr->_advance_wave
   485 ;;   _advance_wave->i1_update_duty
   486 ;;
   487 ;; Critical Paths under _main in BANK0
   488 ;;
   489 ;;   _main->_round
   490 ;;   _round->_trunc
   491 ;;   _trunc->___ftadd
   492 ;;   ___altoft->___ftneg
   493 ;;   ___lwtoft->___fttol
   494 ;;   ___ftmul->___ftdiv
   495 ;;   ___ftdiv->___fttol
   496 ;;   ___ftadd->___altoft
   497 ;;   ___ftneg->___fttol
   498 ;;   ___fttol->___ftpack
   499 ;;
   500 ;; Critical Paths under _isr in BANK0
   501 ;;
   502 ;;   None.
   503 ;;
   504 ;; Critical Paths under _main in BANK1
   505 ;;
   506 ;;   None.
   507 ;;
   508 ;; Critical Paths under _isr in BANK1
   509 ;;
   510 ;;   None.
   511 ;;
   512 ;; Critical Paths under _main in BANK2
   513 ;;
   514 ;;   None.
   515 ;;
   516 ;; Critical Paths under _isr in BANK2
   517 ;;
   518 ;;   None.
   519                           
   520 ;;
   521 ;;Main: autosize = 0, tempsize = 0, incstack = 0, save=0
   522 ;;
   523                           
   524 ;;
   525 ;;Call Graph Tables:
   526 ;;
   527 ;; ---------------------------------------------------------------------------------
   528 ;; (Depth) Function   	        Calls       Base Space   Used Autos Params    Refs
   529 ;; ---------------------------------------------------------------------------------
   530 ;; (0) _main                                                 0     0      0    3751
   531 ;;                            ___ftdiv
   532 ;;                           ___lwtoft
   533 ;;                            ___ftmul
   534 ;;                              _round
   535 ;;                            ___fttol
   536 ;;                        _update_duty
   537 ;; ---------------------------------------------------------------------------------
   538 ;; (1) _round                                                6     3      3    2176
   539 ;;                                             55 BANK0      6     3      3
   540 ;;                              _trunc
   541 ;;                            ___ftneg
   542 ;;                            ___ftadd
   543 ;;                            ___ftmul (ARG)
   544 ;;                            ___ftdiv (ARG)
   545 ;;                           ___lwtoft (ARG)
   546 ;; ---------------------------------------------------------------------------------
   547 ;; (2) _trunc                                                9     6      3     970
   548 ;;                                             46 BANK0      9     6      3
   549 ;;                              _frexp
   550 ;;                            ___fttol
   551 ;;                           ___altoft
   552 ;;                            ___ftneg (ARG)
   553 ;;                            ___ftadd (ARG)
   554 ;; ---------------------------------------------------------------------------------
   555 ;; (3) ___altoft                                             8     4      4     347
   556 ;;                                             25 BANK0      8     4      4
   557 ;;                           ___ftpack
   558 ;;                            ___ftneg (ARG)
   559 ;;                            ___fttol (ARG)
   560 ;; ---------------------------------------------------------------------------------
   561 ;; (1) ___lwtoft                                             4     1      3     231
   562 ;;                                             22 BANK0      4     1      3
   563 ;;                           ___ftpack
   564 ;;                            ___fttol (ARG)
   565 ;; ---------------------------------------------------------------------------------
   566 ;; (1) ___ftmul                                             16    10      6     535
   567 ;;                                             38 BANK0     16    10      6
   568 ;;                           ___ftpack
   569 ;;                            ___ftdiv (ARG)
   570 ;;                           ___lwtoft (ARG)
   571 ;;                            ___fttol (ARG)
   572 ;; ---------------------------------------------------------------------------------
   573 ;; (1) ___ftdiv                                             16    10      6     489
   574 ;;                                             22 BANK0     16    10      6
   575 ;;                           ___ftpack
   576 ;;                            ___fttol (ARG)
   577 ;; ---------------------------------------------------------------------------------
   578 ;; (2) ___ftadd                                             13     7      6    1049
   579 ;;                                             33 BANK0     13     7      6
   580 ;;                           ___ftpack
   581 ;;                            ___ftneg (ARG)
   582 ;;                              _frexp (ARG)
   583 ;;                            ___fttol (ARG)
   584 ;;                           ___altoft (ARG)
   585 ;; ---------------------------------------------------------------------------------
   586 ;; (2) ___ftneg                                              3     0      3      45
   587 ;;                                             22 BANK0      3     0      3
   588 ;;                              _frexp (ARG)
   589 ;;                            ___fttol (ARG)
   590 ;;                           ___ftpack (ARG)
   591 ;; ---------------------------------------------------------------------------------
   592 ;; (1) ___fttol                                             14    10      4     252
   593 ;;                                              8 BANK0     14    10      4
   594 ;;                           ___ftpack (ARG)
   595 ;; ---------------------------------------------------------------------------------
   596 ;; (3) ___ftpack                                             8     3      5     209
   597 ;;                                              0 BANK0      8     3      5
   598 ;; ---------------------------------------------------------------------------------
   599 ;; (3) _frexp                                                6     2      4     208
   600 ;;                                              0 BANK0      6     2      4
   601 ;; ---------------------------------------------------------------------------------
   602 ;; (1) _update_duty                                          2     0      2      68
   603 ;;                                              0 BANK0      2     0      2
   604 ;; ---------------------------------------------------------------------------------
   605 ;; Estimated maximum stack depth 3
   606 ;; ---------------------------------------------------------------------------------
   607 ;; (Depth) Function   	        Calls       Base Space   Used Autos Params    Refs
   608 ;; ---------------------------------------------------------------------------------
   609 ;; (5) _isr                                                  4     4      0     223
   610 ;;                                              4 COMMON     4     4      0
   611 ;;                       _advance_wave
   612 ;; ---------------------------------------------------------------------------------
   613 ;; (6) _advance_wave                                         2     2      0     223
   614 ;;                                              2 COMMON     2     2      0
   615 ;;                      i1_update_duty
   616 ;; ---------------------------------------------------------------------------------
   617 ;; (7) i1_update_duty                                        2     0      2     223
   618 ;;                                              0 COMMON     2     0      2
   619 ;; ---------------------------------------------------------------------------------
   620 ;; Estimated maximum stack depth 7
   621 ;; ---------------------------------------------------------------------------------
   622                           
   623 ;; Call Graph Graphs:
   624                           
   625 ;; _main (ROOT)
   626 ;;   ___ftdiv
   627 ;;     ___ftpack
   628 ;;     ___fttol (ARG)
   629 ;;       ___ftpack (ARG)
   630 ;;   ___lwtoft
   631 ;;     ___ftpack
   632 ;;     ___fttol (ARG)
   633 ;;       ___ftpack (ARG)
   634 ;;   ___ftmul
   635 ;;     ___ftpack
   636 ;;     ___ftdiv (ARG)
   637 ;;       ___ftpack
   638 ;;       ___fttol (ARG)
   639 ;;         ___ftpack (ARG)
   640 ;;     ___lwtoft (ARG)
   641 ;;       ___ftpack
   642 ;;       ___fttol (ARG)
   643 ;;         ___ftpack (ARG)
   644 ;;     ___fttol (ARG)
   645 ;;       ___ftpack (ARG)
   646 ;;   _round
   647 ;;     _trunc
   648 ;;       _frexp
   649 ;;       ___fttol
   650 ;;         ___ftpack (ARG)
   651 ;;       ___altoft
   652 ;;         ___ftpack
   653 ;;         ___ftneg (ARG)
   654 ;;           _frexp (ARG)
   655 ;;           ___fttol (ARG)
   656 ;;             ___ftpack (ARG)
   657 ;;           ___ftpack (ARG)
   658 ;;         ___fttol (ARG)
   659 ;;           ___ftpack (ARG)
   660 ;;       ___ftneg (ARG)
   661 ;;         _frexp (ARG)
   662 ;;         ___fttol (ARG)
   663 ;;           ___ftpack (ARG)
   664 ;;         ___ftpack (ARG)
   665 ;;       ___ftadd (ARG)
   666 ;;         ___ftpack
   667 ;;         ___ftneg (ARG)
   668 ;;           _frexp (ARG)
   669 ;;           ___fttol (ARG)
   670 ;;             ___ftpack (ARG)
   671 ;;           ___ftpack (ARG)
   672 ;;         _frexp (ARG)
   673 ;;         ___fttol (ARG)
   674 ;;           ___ftpack (ARG)
   675 ;;         ___altoft (ARG)
   676 ;;           ___ftpack
   677 ;;           ___ftneg (ARG)
   678 ;;             _frexp (ARG)
   679 ;;             ___fttol (ARG)
   680 ;;               ___ftpack (ARG)
   681 ;;             ___ftpack (ARG)
   682 ;;           ___fttol (ARG)
   683 ;;             ___ftpack (ARG)
   684 ;;     ___ftneg
   685 ;;       _frexp (ARG)
   686 ;;       ___fttol (ARG)
   687 ;;         ___ftpack (ARG)
   688 ;;       ___ftpack (ARG)
   689 ;;     ___ftadd
   690 ;;       ___ftpack
   691 ;;       ___ftneg (ARG)
   692 ;;         _frexp (ARG)
   693 ;;         ___fttol (ARG)
   694 ;;           ___ftpack (ARG)
   695 ;;         ___ftpack (ARG)
   696 ;;       _frexp (ARG)
   697 ;;       ___fttol (ARG)
   698 ;;         ___ftpack (ARG)
   699 ;;       ___altoft (ARG)
   700 ;;         ___ftpack
   701 ;;         ___ftneg (ARG)
   702 ;;           _frexp (ARG)
   703 ;;           ___fttol (ARG)
   704 ;;             ___ftpack (ARG)
   705 ;;           ___ftpack (ARG)
   706 ;;         ___fttol (ARG)
   707 ;;           ___ftpack (ARG)
   708 ;;     ___ftmul (ARG)
   709 ;;       ___ftpack
   710 ;;       ___ftdiv (ARG)
   711 ;;         ___ftpack
   712 ;;         ___fttol (ARG)
   713 ;;           ___ftpack (ARG)
   714 ;;       ___lwtoft (ARG)
   715 ;;         ___ftpack
   716 ;;         ___fttol (ARG)
   717 ;;           ___ftpack (ARG)
   718 ;;       ___fttol (ARG)
   719 ;;         ___ftpack (ARG)
   720 ;;     ___ftdiv (ARG)
   721 ;;       ___ftpack
   722 ;;       ___fttol (ARG)
   723 ;;         ___ftpack (ARG)
   724 ;;     ___lwtoft (ARG)
   725 ;;       ___ftpack
   726 ;;       ___fttol (ARG)
   727 ;;         ___ftpack (ARG)
   728 ;;   ___fttol
   729 ;;     ___ftpack (ARG)
   730 ;;   _update_duty
   731 ;;
   732 ;; _isr (ROOT)
   733 ;;   _advance_wave
   734 ;;     i1_update_duty
   735 ;;
   736                           
   737 ;; Address spaces:
   738                           
   739 ;;Name               Size   Autos  Total    Cost      Usage
   740 ;;SFR3                 0      0       0       4        0.0%
   741 ;;BITSFR3              0      0       0       4        0.0%
   742 ;;BANK2               50      0       0       7        0.0%
   743 ;;BITBANK2            50      0       0       6        0.0%
   744 ;;SFR2                 0      0       0       5        0.0%
   745 ;;BITSFR2              0      0       0       5        0.0%
   746 ;;SFR1                 0      0       0       2        0.0%
   747 ;;BITSFR1              0      0       0       2        0.0%
   748 ;;BANK1               50      0       0       5        0.0%
   749 ;;BITBANK1            50      0       0       4        0.0%
   750 ;;CODE                 0      0       0       0        0.0%
   751 ;;DATA                 0      0      5F      10        0.0%
   752 ;;ABS                  0      0      55       8        0.0%
   753 ;;NULL                 0      0       0       0        0.0%
   754 ;;STACK                0      0       A       2        0.0%
   755 ;;BANK0               50     3D      47       3       88.8%
   756 ;;BITBANK0            50      0       0       9        0.0%
   757 ;;SFR0                 0      0       0       1        0.0%
   758 ;;BITSFR0              0      0       0       1        0.0%
   759 ;;COMMON               E      8       E       1      100.0%
   760 ;;BITCOMMON            E      0       0       0        0.0%
   761 ;;EEDATA             100      0       0       0        0.0%
   762                           
   763                           	global	_main
   764                           psect	maintext,global,class=CODE,delta=2
   765                           global __pmaintext
   766  0424                     __pmaintext:
   767                           
   768 ;; *************** function _main *****************
   769 ;; Defined at:
   770 ;;		line 43 in file "main.c"
   771 ;; Parameters:    Size  Location     Type
   772 ;;		None
   773 ;; Auto vars:     Size  Location     Type
   774 ;;		None
   775 ;; Return value:  Size  Location     Type
   776 ;;		None               void
   777 ;; Registers used:
   778 ;;		wreg, fsr0l, fsr0h, status,2, status,0, btemp+1, pclath, cstack
   779 ;; Tracked objects:
   780 ;;		On entry : 17F/0
   781 ;;		On exit  : 0/0
   782 ;;		Unchanged: 0/0
   783 ;; Data sizes:     COMMON   BANK0   BANK1   BANK2
   784 ;;      Params:         0       0       0       0
   785 ;;      Locals:         0       0       0       0
   786 ;;      Temps:          0       0       0       0
   787 ;;      Totals:         0       0       0       0
   788 ;;Total ram usage:        0 bytes
   789 ;; Hardware stack levels required when called:    7
   790 ;; This function calls:
   791 ;;		___ftdiv
   792 ;;		___lwtoft
   793 ;;		___ftmul
   794 ;;		_round
   795 ;;		___fttol
   796 ;;		_update_duty
   797 ;; This function is called by:
   798 ;;		Startup code after reset
   799 ;; This function uses a non-reentrant model
   800 ;;
   801                           psect	maintext
   802                           	file	"main.c"
   803                           	line	43
   804                           	global	__size_of_main
   805  0073                     	__size_of_main	equ	__end_of_main-_main
   806                           	
   807  0424                     _main:	
   808                           	opt	stack 1
   809                           ; Regs used in _main: [wreg-fsr0h+status,2+status,0+btemp+1+pclath+cstack]
   810                           	line	44
   811                           	
   812  0424                     l3062:	
   813                           ;main.c: 44: duty = duty_max2;
   814  0424  1283               	bcf	status, 5	;RP0=0, select bank0
   815  0425  1303               	bcf	status, 6	;RP1=0, select bank0
   816  0426  0864               	movf	(_duty_max2+1),w
   817  0427  01E6               	clrf	(_duty+1)
   818  0428  07E6               	addwf	(_duty+1)
   819  0429  0863               	movf	(_duty_max2),w
   820  042A  01E5               	clrf	(_duty)
   821  042B  07E5               	addwf	(_duty)
   822                           
   823                           	line	48
   824                           	
   825  042C                     l3064:	
   826                           ;main.c: 48: delta = (unsigned int)round(freq/sample_rate*(duty_max2+1));
   827  042C  085D               	movf	(_freq),w
   828  042D  00B9               	movwf	0+(?___ftdiv)+03h
   829  042E  085E               	movf	(_freq+1),w
   830  042F  00BA               	movwf	1+(?___ftdiv)+03h
   831  0430  085F               	movf	(_freq+2),w
   832  0431  00BB               	movwf	2+(?___ftdiv)+03h
   833  0432  0860               	movf	(_sample_rate),w
   834  0433  00B6               	movwf	(?___ftdiv)
   835  0434  0861               	movf	(_sample_rate+1),w
   836  0435  00B7               	movwf	(?___ftdiv+1)
   837  0436  0862               	movf	(_sample_rate+2),w
   838  0437  00B8               	movwf	(?___ftdiv+2)
   839  0438  223D               	fcall	___ftdiv
   840  0439  1283               	bcf	status, 5	;RP0=0, select bank0
   841  043A  1303               	bcf	status, 6	;RP1=0, select bank0
   842  043B  0836               	movf	(0+(?___ftdiv)),w
   843  043C  00C9               	movwf	0+(?___ftmul)+03h
   844  043D  0837               	movf	(1+(?___ftdiv)),w
   845  043E  00CA               	movwf	1+(?___ftmul)+03h
   846  043F  0838               	movf	(2+(?___ftdiv)),w
   847  0440  00CB               	movwf	2+(?___ftmul)+03h
   848  0441  0863               	movf	(_duty_max2),w
   849  0442  3E01               	addlw	low(01h)
   850  0443  00B6               	movwf	(?___lwtoft)
   851  0444  0864               	movf	(_duty_max2+1),w
   852  0445  1803               	skipnc
   853  0446  3E01               	addlw	1
   854  0447  3E00               	addlw	high(01h)
   855  0448  00B7               	movwf	1+(?___lwtoft)
   856  0449  265D               	fcall	___lwtoft
   857  044A  1283               	bcf	status, 5	;RP0=0, select bank0
   858  044B  1303               	bcf	status, 6	;RP1=0, select bank0
   859  044C  0836               	movf	(0+(?___lwtoft)),w
   860  044D  00C6               	movwf	(?___ftmul)
   861  044E  0837               	movf	(1+(?___lwtoft)),w
   862  044F  00C7               	movwf	(?___ftmul+1)
   863  0450  0838               	movf	(2+(?___lwtoft)),w
   864  0451  00C8               	movwf	(?___ftmul+2)
   865  0452  2153               	fcall	___ftmul
   866  0453  1283               	bcf	status, 5	;RP0=0, select bank0
   867  0454  1303               	bcf	status, 6	;RP1=0, select bank0
   868  0455  0846               	movf	(0+(?___ftmul)),w
   869  0456  00D7               	movwf	(?_round)
   870  0457  0847               	movf	(1+(?___ftmul)),w
   871  0458  00D8               	movwf	(?_round+1)
   872  0459  0848               	movf	(2+(?___ftmul)),w
   873  045A  00D9               	movwf	(?_round+2)
   874  045B  2497               	fcall	_round
   875  045C  1283               	bcf	status, 5	;RP0=0, select bank0
   876  045D  1303               	bcf	status, 6	;RP1=0, select bank0
   877  045E  0857               	movf	(0+(?_round)),w
   878  045F  00A8               	movwf	(?___fttol)
   879  0460  0858               	movf	(1+(?_round)),w
   880  0461  00A9               	movwf	(?___fttol+1)
   881  0462  0859               	movf	(2+(?_round)),w
   882  0463  00AA               	movwf	(?___fttol+2)
   883  0464  2301               	fcall	___fttol
   884  0465  1283               	bcf	status, 5	;RP0=0, select bank0
   885  0466  1303               	bcf	status, 6	;RP1=0, select bank0
   886  0467  0829               	movf	1+(((0+(?___fttol)))),w
   887  0468  01F9               	clrf	(_delta+1)
   888  0469  07F9               	addwf	(_delta+1)
   889  046A  0828               	movf	0+(((0+(?___fttol)))),w
   890  046B  01F8               	clrf	(_delta)
   891  046C  07F8               	addwf	(_delta)
   892                           
   893                           	line	51
   894                           	
   895  046D                     l3066:	
   896                           ;main.c: 51: IRCF0 = 1;
   897  046D  1683               	bsf	status, 5	;RP0=1, select bank1
   898  046E  1303               	bcf	status, 6	;RP1=0, select bank1
   899  046F  160F               	bsf	(1148/8)^080h,(1148)&7
   900                           	line	52
   901                           	
   902  0470                     l3068:	
   903                           ;main.c: 52: IRCF1 = 1;
   904  0470  168F               	bsf	(1149/8)^080h,(1149)&7
   905                           	line	53
   906                           	
   907  0471                     l3070:	
   908                           ;main.c: 53: IRCF2 = 1;
   909  0471  170F               	bsf	(1150/8)^080h,(1150)&7
   910                           	line	56
   911                           	
   912  0472                     l3072:	
   913                           ;main.c: 56: ADCON1 = 0x06;
   914  0472  3006               	movlw	(06h)
   915  0473  009F               	movwf	(159)^080h	;volatile
   916                           	line	57
   917                           	
   918  0474                     l3074:	
   919                           ;main.c: 57: TRISA = 0;
   920  0474  0185               	clrf	(133)^080h	;volatile
   921                           	line	58
   922                           	
   923  0475                     l3076:	
   924                           ;main.c: 58: PORTA = 0b01010001;
   925  0475  3051               	movlw	(051h)
   926  0476  1283               	bcf	status, 5	;RP0=0, select bank0
   927  0477  1303               	bcf	status, 6	;RP1=0, select bank0
   928  0478  0085               	movwf	(5)	;volatile
   929                           	line	61
   930                           	
   931  0479                     l3078:	
   932                           ;main.c: 61: PR2 = 0xFF;
   933  0479  30FF               	movlw	(0FFh)
   934  047A  1683               	bsf	status, 5	;RP0=1, select bank1
   935  047B  1303               	bcf	status, 6	;RP1=0, select bank1
   936  047C  0092               	movwf	(146)^080h	;volatile
   937                           	line	62
   938                           	
   939  047D                     l3080:	
   940                           ;main.c: 62: update_duty(duty);
   941  047D  1283               	bcf	status, 5	;RP0=0, select bank0
   942  047E  1303               	bcf	status, 6	;RP1=0, select bank0
   943  047F  0866               	movf	(_duty+1),w
   944  0480  01A1               	clrf	(?_update_duty+1)
   945  0481  07A1               	addwf	(?_update_duty+1)
   946  0482  0865               	movf	(_duty),w
   947  0483  01A0               	clrf	(?_update_duty)
   948  0484  07A0               	addwf	(?_update_duty)
   949                           
   950  0485  25F9               	fcall	_update_duty
   951                           	line	64
   952                           	
   953  0486                     l3082:	
   954                           ;main.c: 64: TRISB = 0;
   955  0486  1683               	bsf	status, 5	;RP0=1, select bank1
   956  0487  1303               	bcf	status, 6	;RP1=0, select bank1
   957  0488  0186               	clrf	(134)^080h	;volatile
   958                           	line	65
   959                           	
   960  0489                     l3084:	
   961                           ;main.c: 65: T2CKPS1 = 0;
   962  0489  1283               	bcf	status, 5	;RP0=0, select bank0
   963  048A  1303               	bcf	status, 6	;RP1=0, select bank0
   964  048B  1092               	bcf	(145/8),(145)&7
   965                           	line	66
   966                           	
   967  048C                     l3086:	
   968                           ;main.c: 66: T2CKPS0 = 0;
   969  048C  1012               	bcf	(144/8),(144)&7
   970                           	line	67
   971                           	
   972  048D                     l3088:	
   973                           ;main.c: 67: CCP1M3 = 1;
   974  048D  1597               	bsf	(187/8),(187)&7
   975                           	line	68
   976                           	
   977  048E                     l3090:	
   978                           ;main.c: 68: CCP1M2 = 1;
   979  048E  1517               	bsf	(186/8),(186)&7
   980                           	line	69
   981                           	
   982  048F                     l3092:	
   983                           ;main.c: 69: TMR2ON = 1;
   984  048F  1512               	bsf	(146/8),(146)&7
   985                           	line	72
   986                           	
   987  0490                     l3094:	
   988                           ;main.c: 72: T0CS = 0;
   989  0490  1683               	bsf	status, 5	;RP0=1, select bank1
   990  0491  1303               	bcf	status, 6	;RP1=0, select bank1
   991  0492  1281               	bcf	(1037/8)^080h,(1037)&7
   992                           	line	77
   993                           	
   994  0493                     l3096:	
   995                           ;main.c: 77: TMR0IE = 1;
   996  0493  168B               	bsf	(93/8),(93)&7
   997                           	line	78
   998                           	
   999  0494                     l3098:	
  1000                           ;main.c: 78: GIE = 1;
  1001  0494  178B               	bsf	(95/8),(95)&7
  1002                           	line	82
  1003                           ;main.c: 81: for(;;)
  1004                           	
  1005  0495                     l464:	
  1006                           	line	86
  1007                           ;main.c: 82: {
  1008                           ;main.c: 86: }
  1009  0495  2C95               	goto	l464
  1010                           	
  1011  0496                     l465:	
  1012                           	line	87
  1013                           	
  1014  0496                     l466:	
  1015                           	global	start
  1016  0496  2810               	ljmp	start
  1017                           	opt stack 0
  1018                           GLOBAL	__end_of_main
  1019  0497                     	__end_of_main:
  1020 ;; =============== function _main ends ============
  1021                           
  1022                           	signat	_main,88
  1023                           	global	_round
  1024                           psect	text430,local,class=CODE,delta=2
  1025                           global __ptext430
  1026  0497                     __ptext430:
  1027                           
  1028 ;; *************** function _round *****************
  1029 ;; Defined at:
  1030 ;;		line 7 in file "C:\Program Files (x86)\HI-TECH Software\PICC\9.82\sources\round.c"
  1031 ;; Parameters:    Size  Location     Type
  1032 ;;  x               3   55[BANK0 ] PTR int 
  1033 ;; Auto vars:     Size  Location     Type
  1034 ;;  f               3   58[BANK0 ] PTR int 
  1035 ;; Return value:  Size  Location     Type
  1036 ;;                  3   55[BANK0 ] PTR int 
  1037 ;; Registers used:
  1038 ;;		wreg, fsr0l, fsr0h, status,2, status,0, btemp+1, pclath, cstack
  1039 ;; Tracked objects:
  1040 ;;		On entry : 0/0
  1041 ;;		On exit  : 0/0
  1042 ;;		Unchanged: 0/0
  1043 ;; Data sizes:     COMMON   BANK0   BANK1   BANK2
  1044 ;;      Params:         0       3       0       0
  1045 ;;      Locals:         0       3       0       0
  1046 ;;      Temps:          0       0       0       0
  1047 ;;      Totals:         0       6       0       0
  1048 ;;Total ram usage:        6 bytes
  1049 ;; Hardware stack levels used:    1
  1050 ;; Hardware stack levels required when called:    6
  1051 ;; This function calls:
  1052 ;;		_trunc
  1053 ;;		___ftneg
  1054 ;;		___ftadd
  1055 ;; This function is called by:
  1056 ;;		_main
  1057 ;; This function uses a non-reentrant model
  1058 ;;
  1059                           psect	text430
  1060                           	file	"C:\Program Files (x86)\HI-TECH Software\PICC\9.82\sources\round.c"
  1061                           	line	7
  1062                           	global	__size_of_round
  1063  004F                     	__size_of_round	equ	__end_of_round-_round
  1064                           	
  1065  0497                     _round:	
  1066                           	opt	stack 1
  1067                           ; Regs used in _round: [wreg-fsr0h+status,2+status,0+btemp+1+pclath+cstack]
  1068                           	line	10
  1069                           	
  1070  0497                     l3054:	
  1071  0497  1283               	bcf	status, 5	;RP0=0, select bank0
  1072  0498  1303               	bcf	status, 6	;RP1=0, select bank0
  1073  0499  0857               	movf	(round@x),w
  1074  049A  00C1               	movwf	(?___ftadd)
  1075  049B  0858               	movf	(round@x+1),w
  1076  049C  00C2               	movwf	(?___ftadd+1)
  1077  049D  0859               	movf	(round@x+2),w
  1078  049E  00C3               	movwf	(?___ftadd+2)
  1079  049F  0857               	movf	(round@x),w
  1080  04A0  00CE               	movwf	(?_trunc)
  1081  04A1  0858               	movf	(round@x+1),w
  1082  04A2  00CF               	movwf	(?_trunc+1)
  1083  04A3  0859               	movf	(round@x+2),w
  1084  04A4  00D0               	movwf	(?_trunc+2)
  1085  04A5  252F               	fcall	_trunc
  1086  04A6  1283               	bcf	status, 5	;RP0=0, select bank0
  1087  04A7  1303               	bcf	status, 6	;RP1=0, select bank0
  1088  04A8  084E               	movf	(0+(?_trunc)),w
  1089  04A9  00B6               	movwf	(?___ftneg)
  1090  04AA  084F               	movf	(1+(?_trunc)),w
  1091  04AB  00B7               	movwf	(?___ftneg+1)
  1092  04AC  0850               	movf	(2+(?_trunc)),w
  1093  04AD  00B8               	movwf	(?___ftneg+2)
  1094  04AE  2688               	fcall	___ftneg
  1095  04AF  1283               	bcf	status, 5	;RP0=0, select bank0
  1096  04B0  1303               	bcf	status, 6	;RP1=0, select bank0
  1097  04B1  0836               	movf	(0+(?___ftneg)),w
  1098  04B2  00C4               	movwf	0+(?___ftadd)+03h
  1099  04B3  0837               	movf	(1+(?___ftneg)),w
  1100  04B4  00C5               	movwf	1+(?___ftadd)+03h
  1101  04B5  0838               	movf	(2+(?___ftneg)),w
  1102  04B6  00C6               	movwf	2+(?___ftadd)+03h
  1103  04B7  2011               	fcall	___ftadd
  1104  04B8  1283               	bcf	status, 5	;RP0=0, select bank0
  1105  04B9  1303               	bcf	status, 6	;RP1=0, select bank0
  1106  04BA  0841               	movf	(0+(?___ftadd)),w
  1107  04BB  00DA               	movwf	(round@f)
  1108  04BC  0842               	movf	(1+(?___ftadd)),w
  1109  04BD  00DB               	movwf	(round@f+1)
  1110  04BE  0843               	movf	(2+(?___ftadd)),w
  1111  04BF  00DC               	movwf	(round@f+2)
  1112                           	line	11
  1113                           	
  1114  04C0                     l3056:	
  1115  04C0  085A               	movf	(round@f),w
  1116  04C1  00C1               	movwf	(?___ftadd)
  1117  04C2  085B               	movf	(round@f+1),w
  1118  04C3  00C2               	movwf	(?___ftadd+1)
  1119  04C4  085C               	movf	(round@f+2),w
  1120  04C5  00C3               	movwf	(?___ftadd+2)
  1121  04C6  0857               	movf	(round@x),w
  1122  04C7  00C4               	movwf	0+(?___ftadd)+03h
  1123  04C8  0858               	movf	(round@x+1),w
  1124  04C9  00C5               	movwf	1+(?___ftadd)+03h
  1125  04CA  0859               	movf	(round@x+2),w
  1126  04CB  00C6               	movwf	2+(?___ftadd)+03h
  1127  04CC  2011               	fcall	___ftadd
  1128  04CD  1283               	bcf	status, 5	;RP0=0, select bank0
  1129  04CE  1303               	bcf	status, 6	;RP1=0, select bank0
  1130  04CF  0841               	movf	(0+(?___ftadd)),w
  1131  04D0  00D7               	movwf	(round@x)
  1132  04D1  0842               	movf	(1+(?___ftadd)),w
  1133  04D2  00D8               	movwf	(round@x+1)
  1134  04D3  0843               	movf	(2+(?___ftadd)),w
  1135  04D4  00D9               	movwf	(round@x+2)
  1136                           	line	12
  1137                           	
  1138  04D5                     l3058:	
  1139  04D5  0857               	movf	(round@x),w
  1140  04D6  00CE               	movwf	(?_trunc)
  1141  04D7  0858               	movf	(round@x+1),w
  1142  04D8  00CF               	movwf	(?_trunc+1)
  1143  04D9  0859               	movf	(round@x+2),w
  1144  04DA  00D0               	movwf	(?_trunc+2)
  1145  04DB  252F               	fcall	_trunc
  1146  04DC  1283               	bcf	status, 5	;RP0=0, select bank0
  1147  04DD  1303               	bcf	status, 6	;RP1=0, select bank0
  1148  04DE  084E               	movf	(0+(?_trunc)),w
  1149  04DF  00D7               	movwf	(?_round)
  1150  04E0  084F               	movf	(1+(?_trunc)),w
  1151  04E1  00D8               	movwf	(?_round+1)
  1152  04E2  0850               	movf	(2+(?_trunc)),w
  1153  04E3  00D9               	movwf	(?_round+2)
  1154  04E4  2CE5               	goto	l938
  1155                           	
  1156  04E5                     l3060:	
  1157                           	line	13
  1158                           	
  1159  04E5                     l938:	
  1160  04E5  0008               	return
  1161                           	opt stack 0
  1162                           GLOBAL	__end_of_round
  1163  04E6                     	__end_of_round:
  1164 ;; =============== function _round ends ============
  1165                           
  1166                           	signat	_round,4219
  1167                           	global	_trunc
  1168                           psect	text431,local,class=CODE,delta=2
  1169                           global __ptext431
  1170  052F                     __ptext431:
  1171                           
  1172 ;; *************** function _trunc *****************
  1173 ;; Defined at:
  1174 ;;		line 14 in file "C:\Program Files (x86)\HI-TECH Software\PICC\9.82\sources\trunc.c"
  1175 ;; Parameters:    Size  Location     Type
  1176 ;;  x               3   46[BANK0 ] PTR int 
  1177 ;; Auto vars:     Size  Location     Type
  1178 ;;  i               3   50[BANK0 ] PTR int 
  1179 ;;  expon           2   53[BANK0 ] int 
  1180 ;; Return value:  Size  Location     Type
  1181 ;;                  3   46[BANK0 ] int 
  1182 ;; Registers used:
  1183 ;;		wreg, fsr0l, fsr0h, status,2, status,0, btemp+1, pclath, cstack
  1184 ;; Tracked objects:
  1185 ;;		On entry : 0/0
  1186 ;;		On exit  : 0/0
  1187 ;;		Unchanged: 0/0
  1188 ;; Data sizes:     COMMON   BANK0   BANK1   BANK2
  1189 ;;      Params:         0       3       0       0
  1190 ;;      Locals:         0       5       0       0
  1191 ;;      Temps:          0       1       0       0
  1192 ;;      Totals:         0       9       0       0
  1193 ;;Total ram usage:        9 bytes
  1194 ;; Hardware stack levels used:    1
  1195 ;; Hardware stack levels required when called:    5
  1196 ;; This function calls:
  1197 ;;		_frexp
  1198 ;;		___fttol
  1199 ;;		___altoft
  1200 ;; This function is called by:
  1201 ;;		_round
  1202 ;; This function uses a non-reentrant model
  1203 ;;
  1204                           psect	text431
  1205                           	file	"C:\Program Files (x86)\HI-TECH Software\PICC\9.82\sources\trunc.c"
  1206                           	line	14
  1207                           	global	__size_of_trunc
  1208  0047                     	__size_of_trunc	equ	__end_of_trunc-_trunc
  1209                           	
  1210  052F                     _trunc:	
  1211                           	opt	stack 1
  1212                           ; Regs used in _trunc: [wreg-fsr0h+status,2+status,0+btemp+1+pclath+cstack]
  1213                           	line	18
  1214                           	
  1215  052F                     l3036:	
  1216  052F  1283               	bcf	status, 5	;RP0=0, select bank0
  1217  0530  1303               	bcf	status, 6	;RP1=0, select bank0
  1218  0531  084E               	movf	(trunc@x),w
  1219  0532  00A0               	movwf	(?_frexp)
  1220  0533  084F               	movf	(trunc@x+1),w
  1221  0534  00A1               	movwf	(?_frexp+1)
  1222  0535  0850               	movf	(trunc@x+2),w
  1223  0536  00A2               	movwf	(?_frexp+2)
  1224  0537  3055               	movlw	(trunc@expon)&0ffh
  1225  0538  00D1               	movwf	(??_trunc+0)+0
  1226  0539  0851               	movf	(??_trunc+0)+0,w
  1227  053A  00A3               	movwf	(0+?_frexp+03h)
  1228  053B  2576               	fcall	_frexp
  1229                           	line	19
  1230                           	
  1231  053C                     l3038:	
  1232  053C  1283               	bcf	status, 5	;RP0=0, select bank0
  1233  053D  1303               	bcf	status, 6	;RP1=0, select bank0
  1234  053E  1FD6               	btfss	(trunc@expon+1),7
  1235  053F  2D41               	goto	u3531
  1236  0540  2D42               	goto	u3530
  1237  0541                     u3531:
  1238  0541  2D4A               	goto	l3044
  1239  0542                     u3530:
  1240                           	line	20
  1241                           	
  1242  0542                     l3040:	
  1243  0542  3000               	movlw	0x0
  1244  0543  00CE               	movwf	(?_trunc)
  1245  0544  3000               	movlw	0x0
  1246  0545  00CF               	movwf	(?_trunc+1)
  1247  0546  3000               	movlw	0x0
  1248  0547  00D0               	movwf	(?_trunc+2)
  1249  0548  2D75               	goto	l944
  1250                           	
  1251  0549                     l3042:	
  1252  0549  2D75               	goto	l944
  1253                           	
  1254  054A                     l943:	
  1255                           	line	21
  1256                           	
  1257  054A                     l3044:	
  1258  054A  3000               	movlw	high(015h)
  1259  054B  0256               	subwf	(trunc@expon+1),w
  1260  054C  3015               	movlw	low(015h)
  1261  054D  1903               	skipnz
  1262  054E  0255               	subwf	(trunc@expon),w
  1263  054F  1C03               	skipc
  1264  0550  2D52               	goto	u3541
  1265  0551  2D53               	goto	u3540
  1266  0552                     u3541:
  1267  0552  2D54               	goto	l3048
  1268  0553                     u3540:
  1269                           	line	22
  1270                           	
  1271  0553                     l3046:	
  1272  0553  2D75               	goto	l944
  1273                           	
  1274  0554                     l945:	
  1275                           	line	23
  1276                           	
  1277  0554                     l3048:	
  1278  0554  084E               	movf	(trunc@x),w
  1279  0555  00A8               	movwf	(?___fttol)
  1280  0556  084F               	movf	(trunc@x+1),w
  1281  0557  00A9               	movwf	(?___fttol+1)
  1282  0558  0850               	movf	(trunc@x+2),w
  1283  0559  00AA               	movwf	(?___fttol+2)
  1284  055A  2301               	fcall	___fttol
  1285  055B  1283               	bcf	status, 5	;RP0=0, select bank0
  1286  055C  1303               	bcf	status, 6	;RP1=0, select bank0
  1287  055D  082B               	movf	(3+(?___fttol)),w
  1288  055E  00BC               	movwf	(?___altoft+3)
  1289  055F  082A               	movf	(2+(?___fttol)),w
  1290  0560  00BB               	movwf	(?___altoft+2)
  1291  0561  0829               	movf	(1+(?___fttol)),w
  1292  0562  00BA               	movwf	(?___altoft+1)
  1293  0563  0828               	movf	(0+(?___fttol)),w
  1294  0564  00B9               	movwf	(?___altoft)
  1295                           
  1296  0565  24E6               	fcall	___altoft
  1297  0566  1283               	bcf	status, 5	;RP0=0, select bank0
  1298  0567  1303               	bcf	status, 6	;RP1=0, select bank0
  1299  0568  0839               	movf	(0+(?___altoft)),w
  1300  0569  00D2               	movwf	(trunc@i)
  1301  056A  083A               	movf	(1+(?___altoft)),w
  1302  056B  00D3               	movwf	(trunc@i+1)
  1303  056C  083B               	movf	(2+(?___altoft)),w
  1304  056D  00D4               	movwf	(trunc@i+2)
  1305                           	line	24
  1306                           	
  1307  056E                     l3050:	
  1308  056E  0852               	movf	(trunc@i),w
  1309  056F  00CE               	movwf	(?_trunc)
  1310  0570  0853               	movf	(trunc@i+1),w
  1311  0571  00CF               	movwf	(?_trunc+1)
  1312  0572  0854               	movf	(trunc@i+2),w
  1313  0573  00D0               	movwf	(?_trunc+2)
  1314  0574  2D75               	goto	l944
  1315                           	
  1316  0575                     l3052:	
  1317                           	line	25
  1318                           	
  1319  0575                     l944:	
  1320  0575  0008               	return
  1321                           	opt stack 0
  1322                           GLOBAL	__end_of_trunc
  1323  0576                     	__end_of_trunc:
  1324 ;; =============== function _trunc ends ============
  1325                           
  1326                           	signat	_trunc,4219
  1327                           	global	___altoft
  1328                           psect	text432,local,class=CODE,delta=2
  1329                           global __ptext432
  1330  04E6                     __ptext432:
  1331                           
  1332 ;; *************** function ___altoft *****************
  1333 ;; Defined at:
  1334 ;;		line 43 in file "C:\Program Files (x86)\HI-TECH Software\PICC\9.82\sources\altoft.c"
  1335 ;; Parameters:    Size  Location     Type
  1336 ;;  c               4   25[BANK0 ] long 
  1337 ;; Auto vars:     Size  Location     Type
  1338 ;;  sign            1   32[BANK0 ] unsigned char 
  1339 ;;  exp             1   31[BANK0 ] unsigned char 
  1340 ;; Return value:  Size  Location     Type
  1341 ;;                  3   25[BANK0 ] float 
  1342 ;; Registers used:
  1343 ;;		wreg, status,2, status,0, pclath, cstack
  1344 ;; Tracked objects:
  1345 ;;		On entry : 0/0
  1346 ;;		On exit  : 0/0
  1347 ;;		Unchanged: 0/0
  1348 ;; Data sizes:     COMMON   BANK0   BANK1   BANK2
  1349 ;;      Params:         0       4       0       0
  1350 ;;      Locals:         0       2       0       0
  1351 ;;      Temps:          0       2       0       0
  1352 ;;      Totals:         0       8       0       0
  1353 ;;Total ram usage:        8 bytes
  1354 ;; Hardware stack levels used:    1
  1355 ;; Hardware stack levels required when called:    4
  1356 ;; This function calls:
  1357 ;;		___ftpack
  1358 ;; This function is called by:
  1359 ;;		_trunc
  1360 ;; This function uses a non-reentrant model
  1361 ;;
  1362                           psect	text432
  1363                           	file	"C:\Program Files (x86)\HI-TECH Software\PICC\9.82\sources\altoft.c"
  1364                           	line	43
  1365                           	global	__size_of___altoft
  1366  0049                     	__size_of___altoft	equ	__end_of___altoft-___altoft
  1367                           	
  1368  04E6                     ___altoft:	
  1369                           	opt	stack 1
  1370                           ; Regs used in ___altoft: [wreg+status,2+status,0+pclath+cstack]
  1371                           	line	45
  1372                           	
  1373  04E6                     l3018:	
  1374  04E6  1283               	bcf	status, 5	;RP0=0, select bank0
  1375  04E7  1303               	bcf	status, 6	;RP1=0, select bank0
  1376  04E8  01C0               	clrf	(___altoft@sign)
  1377                           	line	46
  1378                           	
  1379  04E9                     l3020:	
  1380  04E9  308E               	movlw	(08Eh)
  1381  04EA  00BD               	movwf	(??___altoft+0)+0
  1382  04EB  083D               	movf	(??___altoft+0)+0,w
  1383  04EC  00BF               	movwf	(___altoft@exp)
  1384                           	line	47
  1385                           	
  1386  04ED                     l3022:	
  1387  04ED  1FBC               	btfss	(___altoft@c+3),7
  1388  04EE  2CF0               	goto	u3501
  1389  04EF  2CF1               	goto	u3500
  1390  04F0                     u3501:
  1391  04F0  2D0F               	goto	l3030
  1392  04F1                     u3500:
  1393                           	line	48
  1394                           	
  1395  04F1                     l3024:	
  1396  04F1  09B9               	comf	(___altoft@c),f
  1397  04F2  09BA               	comf	(___altoft@c+1),f
  1398  04F3  09BB               	comf	(___altoft@c+2),f
  1399  04F4  09BC               	comf	(___altoft@c+3),f
  1400  04F5  0AB9               	incf	(___altoft@c),f
  1401  04F6  1903               	skipnz
  1402  04F7  0ABA               	incf	(___altoft@c+1),f
  1403  04F8  1903               	skipnz
  1404  04F9  0ABB               	incf	(___altoft@c+2),f
  1405  04FA  1903               	skipnz
  1406  04FB  0ABC               	incf	(___altoft@c+3),f
  1407                           	line	49
  1408                           	
  1409  04FC                     l3026:	
  1410  04FC  01C0               	clrf	(___altoft@sign)
  1411  04FD  1403               	bsf	status,0
  1412  04FE  0DC0               	rlf	(___altoft@sign),f
  1413  04FF  2D0F               	goto	l3030
  1414                           	line	50
  1415                           	
  1416  0500                     l1206:	
  1417                           	line	52
  1418  0500  2D0F               	goto	l3030
  1419                           	
  1420  0501                     l1208:	
  1421                           	line	53
  1422                           	
  1423  0501                     l3028:	
  1424  0501  3001               	movlw	01h
  1425  0502                     u3515:
  1426  0502  1003               	clrc
  1427  0503  0CBC               	rrf	(___altoft@c+3),f
  1428  0504  0CBB               	rrf	(___altoft@c+2),f
  1429  0505  0CBA               	rrf	(___altoft@c+1),f
  1430  0506  0CB9               	rrf	(___altoft@c),f
  1431  0507  3EFF               	addlw	-1
  1432  0508  1D03               	skipz
  1433  0509  2D02               	goto	u3515
  1434                           
  1435                           	line	54
  1436  050A  3001               	movlw	(01h)
  1437  050B  00BD               	movwf	(??___altoft+0)+0
  1438  050C  083D               	movf	(??___altoft+0)+0,w
  1439  050D  07BF               	addwf	(___altoft@exp),f
  1440  050E  2D0F               	goto	l3030
  1441                           	line	55
  1442                           	
  1443  050F                     l1207:	
  1444                           	line	52
  1445                           	
  1446  050F                     l3030:	
  1447  050F  30FF               	movlw	high highword(-16777216)
  1448  0510  053C               	andwf	(___altoft@c+3),w
  1449  0511  1D03               	btfss	status,2
  1450  0512  2D14               	goto	u3521
  1451  0513  2D15               	goto	u3520
  1452  0514                     u3521:
  1453  0514  2D01               	goto	l3028
  1454  0515                     u3520:
  1455  0515  2D16               	goto	l3032
  1456                           	
  1457  0516                     l1209:	
  1458                           	line	56
  1459                           	
  1460  0516                     l3032:	
  1461  0516  0839               	movf	(___altoft@c),w
  1462  0517  00A0               	movwf	(?___ftpack)
  1463  0518  083A               	movf	(___altoft@c+1),w
  1464  0519  00A1               	movwf	(?___ftpack+1)
  1465  051A  083B               	movf	(___altoft@c+2),w
  1466  051B  00A2               	movwf	(?___ftpack+2)
  1467  051C  083F               	movf	(___altoft@exp),w
  1468  051D  00BD               	movwf	(??___altoft+0)+0
  1469  051E  083D               	movf	(??___altoft+0)+0,w
  1470  051F  00A3               	movwf	0+(?___ftpack)+03h
  1471  0520  0840               	movf	(___altoft@sign),w
  1472  0521  00BE               	movwf	(??___altoft+1)+0
  1473  0522  083E               	movf	(??___altoft+1)+0,w
  1474  0523  00A4               	movwf	0+(?___ftpack)+04h
  1475  0524  23A7               	fcall	___ftpack
  1476  0525  1283               	bcf	status, 5	;RP0=0, select bank0
  1477  0526  1303               	bcf	status, 6	;RP1=0, select bank0
  1478  0527  0820               	movf	(0+(?___ftpack)),w
  1479  0528  00B9               	movwf	(?___altoft)
  1480  0529  0821               	movf	(1+(?___ftpack)),w
  1481  052A  00BA               	movwf	(?___altoft+1)
  1482  052B  0822               	movf	(2+(?___ftpack)),w
  1483  052C  00BB               	movwf	(?___altoft+2)
  1484  052D  2D2E               	goto	l1210
  1485                           	
  1486  052E                     l3034:	
  1487                           	line	57
  1488                           	
  1489  052E                     l1210:	
  1490  052E  0008               	return
  1491                           	opt stack 0
  1492                           GLOBAL	__end_of___altoft
  1493  052F                     	__end_of___altoft:
  1494 ;; =============== function ___altoft ends ============
  1495                           
  1496                           	signat	___altoft,4219
  1497                           	global	___lwtoft
  1498                           psect	text433,local,class=CODE,delta=2
  1499                           global __ptext433
  1500  065D                     __ptext433:
  1501                           
  1502 ;; *************** function ___lwtoft *****************
  1503 ;; Defined at:
  1504 ;;		line 29 in file "C:\Program Files (x86)\HI-TECH Software\PICC\9.82\sources\lwtoft.c"
  1505 ;; Parameters:    Size  Location     Type
  1506 ;;  c               2   22[BANK0 ] unsigned int 
  1507 ;; Auto vars:     Size  Location     Type
  1508 ;;		None
  1509 ;; Return value:  Size  Location     Type
  1510 ;;                  3   22[BANK0 ] float 
  1511 ;; Registers used:
  1512 ;;		wreg, status,2, status,0, pclath, cstack
  1513 ;; Tracked objects:
  1514 ;;		On entry : 0/0
  1515 ;;		On exit  : 0/0
  1516 ;;		Unchanged: 0/0
  1517 ;; Data sizes:     COMMON   BANK0   BANK1   BANK2
  1518 ;;      Params:         0       3       0       0
  1519 ;;      Locals:         0       0       0       0
  1520 ;;      Temps:          0       1       0       0
  1521 ;;      Totals:         0       4       0       0
  1522 ;;Total ram usage:        4 bytes
  1523 ;; Hardware stack levels used:    1
  1524 ;; Hardware stack levels required when called:    4
  1525 ;; This function calls:
  1526 ;;		___ftpack
  1527 ;; This function is called by:
  1528 ;;		_main
  1529 ;;		_convert_to_duty
  1530 ;; This function uses a non-reentrant model
  1531 ;;
  1532                           psect	text433
  1533                           	file	"C:\Program Files (x86)\HI-TECH Software\PICC\9.82\sources\lwtoft.c"
  1534                           	line	29
  1535                           	global	__size_of___lwtoft
  1536  0017                     	__size_of___lwtoft	equ	__end_of___lwtoft-___lwtoft
  1537                           	
  1538  065D                     ___lwtoft:	
  1539                           	opt	stack 3
  1540                           ; Regs used in ___lwtoft: [wreg+status,2+status,0+pclath+cstack]
  1541                           	line	30
  1542                           	
  1543  065D                     l3014:	
  1544  065D  1283               	bcf	status, 5	;RP0=0, select bank0
  1545  065E  1303               	bcf	status, 6	;RP1=0, select bank0
  1546  065F  0836               	movf	(___lwtoft@c),w
  1547  0660  00A0               	movwf	(?___ftpack)
  1548  0661  0837               	movf	(___lwtoft@c+1),w
  1549  0662  00A1               	movwf	(?___ftpack+1)
  1550  0663  01A2               	clrf	(?___ftpack+2)
  1551  0664  308E               	movlw	(08Eh)
  1552  0665  00B9               	movwf	(??___lwtoft+0)+0
  1553  0666  0839               	movf	(??___lwtoft+0)+0,w
  1554  0667  00A3               	movwf	0+(?___ftpack)+03h
  1555  0668  01A4               	clrf	0+(?___ftpack)+04h
  1556  0669  23A7               	fcall	___ftpack
  1557  066A  1283               	bcf	status, 5	;RP0=0, select bank0
  1558  066B  1303               	bcf	status, 6	;RP1=0, select bank0
  1559  066C  0820               	movf	(0+(?___ftpack)),w
  1560  066D  00B6               	movwf	(?___lwtoft)
  1561  066E  0821               	movf	(1+(?___ftpack)),w
  1562  066F  00B7               	movwf	(?___lwtoft+1)
  1563  0670  0822               	movf	(2+(?___ftpack)),w
  1564  0671  00B8               	movwf	(?___lwtoft+2)
  1565  0672  2E73               	goto	l1201
  1566                           	
  1567  0673                     l3016:	
  1568                           	line	31
  1569                           	
  1570  0673                     l1201:	
  1571  0673  0008               	return
  1572                           	opt stack 0
  1573                           GLOBAL	__end_of___lwtoft
  1574  0674                     	__end_of___lwtoft:
  1575 ;; =============== function ___lwtoft ends ============
  1576                           
  1577                           	signat	___lwtoft,4219
  1578                           	global	___ftmul
  1579                           psect	text434,local,class=CODE,delta=2
  1580                           global __ptext434
  1581  0153                     __ptext434:
  1582                           
  1583 ;; *************** function ___ftmul *****************
  1584 ;; Defined at:
  1585 ;;		line 52 in file "C:\Program Files (x86)\HI-TECH Software\PICC\9.82\sources\ftmul.c"
  1586 ;; Parameters:    Size  Location     Type
  1587 ;;  f1              3   38[BANK0 ] float 
  1588 ;;  f2              3   41[BANK0 ] float 
  1589 ;; Auto vars:     Size  Location     Type
  1590 ;;  f3_as_produc    3   49[BANK0 ] unsigned um
  1591 ;;  sign            1   53[BANK0 ] unsigned char 
  1592 ;;  cntr            1   52[BANK0 ] unsigned char 
  1593 ;;  exp             1   48[BANK0 ] unsigned char 
  1594 ;; Return value:  Size  Location     Type
  1595 ;;                  3   38[BANK0 ] float 
  1596 ;; Registers used:
  1597 ;;		wreg, status,2, status,0, pclath, cstack
  1598 ;; Tracked objects:
  1599 ;;		On entry : 0/0
  1600 ;;		On exit  : 0/0
  1601 ;;		Unchanged: 0/0
  1602 ;; Data sizes:     COMMON   BANK0   BANK1   BANK2
  1603 ;;      Params:         0       6       0       0
  1604 ;;      Locals:         0       6       0       0
  1605 ;;      Temps:          0       4       0       0
  1606 ;;      Totals:         0      16       0       0
  1607 ;;Total ram usage:       16 bytes
  1608 ;; Hardware stack levels used:    1
  1609 ;; Hardware stack levels required when called:    4
  1610 ;; This function calls:
  1611 ;;		___ftpack
  1612 ;; This function is called by:
  1613 ;;		_main
  1614 ;;		_convert_to_duty
  1615 ;; This function uses a non-reentrant model
  1616 ;;
  1617                           psect	text434
  1618                           	file	"C:\Program Files (x86)\HI-TECH Software\PICC\9.82\sources\ftmul.c"
  1619                           	line	52
  1620                           	global	__size_of___ftmul
  1621  00EA                     	__size_of___ftmul	equ	__end_of___ftmul-___ftmul
  1622                           	
  1623  0153                     ___ftmul:	
  1624                           	opt	stack 3
  1625                           ; Regs used in ___ftmul: [wreg+status,2+status,0+pclath+cstack]
  1626                           	line	56
  1627                           	
  1628  0153                     l2964:	
  1629  0153  1283               	bcf	status, 5	;RP0=0, select bank0
  1630  0154  1303               	bcf	status, 6	;RP1=0, select bank0
  1631  0155  0846               	movf	(___ftmul@f1),w
  1632  0156  00CC               	movwf	((??___ftmul+0)+0)
  1633  0157  0847               	movf	(___ftmul@f1+1),w
  1634  0158  00CD               	movwf	((??___ftmul+0)+0+1)
  1635  0159  0848               	movf	(___ftmul@f1+2),w
  1636  015A  00CE               	movwf	((??___ftmul+0)+0+2)
  1637  015B  1003               	clrc
  1638  015C  0D4D               	rlf	(??___ftmul+0)+1,w
  1639  015D  0D4E               	rlf	(??___ftmul+0)+2,w
  1640  015E  00CF               	movwf	(??___ftmul+3)+0
  1641  015F  084F               	movf	(??___ftmul+3)+0,w
  1642  0160  00D0               	movwf	(___ftmul@exp)
  1643  0161  08D0               	movf	((___ftmul@exp)),f
  1644  0162  1D03               	skipz
  1645  0163  2965               	goto	u3361
  1646  0164  2966               	goto	u3360
  1647  0165                     u3361:
  1648  0165  296E               	goto	l2970
  1649  0166                     u3360:
  1650                           	line	57
  1651                           	
  1652  0166                     l2966:	
  1653  0166  3000               	movlw	0x0
  1654  0167  00C6               	movwf	(?___ftmul)
  1655  0168  3000               	movlw	0x0
  1656  0169  00C7               	movwf	(?___ftmul+1)
  1657  016A  3000               	movlw	0x0
  1658  016B  00C8               	movwf	(?___ftmul+2)
  1659  016C  2A3C               	goto	l1077
  1660                           	
  1661  016D                     l2968:	
  1662  016D  2A3C               	goto	l1077
  1663                           	
  1664  016E                     l1076:	
  1665                           	line	58
  1666                           	
  1667  016E                     l2970:	
  1668  016E  0849               	movf	(___ftmul@f2),w
  1669  016F  00CC               	movwf	((??___ftmul+0)+0)
  1670  0170  084A               	movf	(___ftmul@f2+1),w
  1671  0171  00CD               	movwf	((??___ftmul+0)+0+1)
  1672  0172  084B               	movf	(___ftmul@f2+2),w
  1673  0173  00CE               	movwf	((??___ftmul+0)+0+2)
  1674  0174  1003               	clrc
  1675  0175  0D4D               	rlf	(??___ftmul+0)+1,w
  1676  0176  0D4E               	rlf	(??___ftmul+0)+2,w
  1677  0177  00CF               	movwf	(??___ftmul+3)+0
  1678  0178  084F               	movf	(??___ftmul+3)+0,w
  1679  0179  00D5               	movwf	(___ftmul@sign)
  1680  017A  08D5               	movf	((___ftmul@sign)),f
  1681  017B  1D03               	skipz
  1682  017C  297E               	goto	u3371
  1683  017D  297F               	goto	u3370
  1684  017E                     u3371:
  1685  017E  2987               	goto	l2976
  1686  017F                     u3370:
  1687                           	line	59
  1688                           	
  1689  017F                     l2972:	
  1690  017F  3000               	movlw	0x0
  1691  0180  00C6               	movwf	(?___ftmul)
  1692  0181  3000               	movlw	0x0
  1693  0182  00C7               	movwf	(?___ftmul+1)
  1694  0183  3000               	movlw	0x0
  1695  0184  00C8               	movwf	(?___ftmul+2)
  1696  0185  2A3C               	goto	l1077
  1697                           	
  1698  0186                     l2974:	
  1699  0186  2A3C               	goto	l1077
  1700                           	
  1701  0187                     l1078:	
  1702                           	line	60
  1703                           	
  1704  0187                     l2976:	
  1705  0187  0855               	movf	(___ftmul@sign),w
  1706  0188  3E7B               	addlw	07Bh
  1707  0189  00CC               	movwf	(??___ftmul+0)+0
  1708  018A  084C               	movf	(??___ftmul+0)+0,w
  1709  018B  07D0               	addwf	(___ftmul@exp),f
  1710                           	line	61
  1711  018C  0846               	movf	(___ftmul@f1),w
  1712  018D  00CC               	movwf	((??___ftmul+0)+0)
  1713  018E  0847               	movf	(___ftmul@f1+1),w
  1714  018F  00CD               	movwf	((??___ftmul+0)+0+1)
  1715  0190  0848               	movf	(___ftmul@f1+2),w
  1716  0191  00CE               	movwf	((??___ftmul+0)+0+2)
  1717  0192  3010               	movlw	010h
  1718  0193                     u3385:
  1719  0193  1003               	clrc
  1720  0194  0CCE               	rrf	(??___ftmul+0)+2,f
  1721  0195  0CCD               	rrf	(??___ftmul+0)+1,f
  1722  0196  0CCC               	rrf	(??___ftmul+0)+0,f
  1723  0197                     u3380:
  1724  0197  3EFF               	addlw	-1
  1725  0198  1D03               	skipz
  1726  0199  2993               	goto	u3385
  1727  019A  084C               	movf	0+(??___ftmul+0)+0,w
  1728  019B  00CF               	movwf	(??___ftmul+3)+0
  1729  019C  084F               	movf	(??___ftmul+3)+0,w
  1730  019D  00D5               	movwf	(___ftmul@sign)
  1731                           	line	62
  1732  019E  0849               	movf	(___ftmul@f2),w
  1733  019F  00CC               	movwf	((??___ftmul+0)+0)
  1734  01A0  084A               	movf	(___ftmul@f2+1),w
  1735  01A1  00CD               	movwf	((??___ftmul+0)+0+1)
  1736  01A2  084B               	movf	(___ftmul@f2+2),w
  1737  01A3  00CE               	movwf	((??___ftmul+0)+0+2)
  1738  01A4  3010               	movlw	010h
  1739  01A5                     u3395:
  1740  01A5  1003               	clrc
  1741  01A6  0CCE               	rrf	(??___ftmul+0)+2,f
  1742  01A7  0CCD               	rrf	(??___ftmul+0)+1,f
  1743  01A8  0CCC               	rrf	(??___ftmul+0)+0,f
  1744  01A9                     u3390:
  1745  01A9  3EFF               	addlw	-1
  1746  01AA  1D03               	skipz
  1747  01AB  29A5               	goto	u3395
  1748  01AC  084C               	movf	0+(??___ftmul+0)+0,w
  1749  01AD  00CF               	movwf	(??___ftmul+3)+0
  1750  01AE  084F               	movf	(??___ftmul+3)+0,w
  1751  01AF  06D5               	xorwf	(___ftmul@sign),f
  1752                           	line	63
  1753  01B0  3080               	movlw	(080h)
  1754  01B1  00CC               	movwf	(??___ftmul+0)+0
  1755  01B2  084C               	movf	(??___ftmul+0)+0,w
  1756  01B3  05D5               	andwf	(___ftmul@sign),f
  1757                           	line	64
  1758                           	
  1759  01B4                     l2978:	
  1760  01B4  17C7               	bsf	(___ftmul@f1)+(15/8),(15)&7
  1761                           	line	66
  1762                           	
  1763  01B5                     l2980:	
  1764  01B5  17CA               	bsf	(___ftmul@f2)+(15/8),(15)&7
  1765                           	line	67
  1766                           	
  1767  01B6                     l2982:	
  1768  01B6  30FF               	movlw	0FFh
  1769  01B7  05C9               	andwf	(___ftmul@f2),f
  1770  01B8  30FF               	movlw	0FFh
  1771  01B9  05CA               	andwf	(___ftmul@f2+1),f
  1772  01BA  3000               	movlw	0
  1773  01BB  05CB               	andwf	(___ftmul@f2+2),f
  1774                           	line	68
  1775                           	
  1776  01BC                     l2984:	
  1777  01BC  3000               	movlw	0
  1778  01BD  00D1               	movwf	(___ftmul@f3_as_product)
  1779  01BE  3000               	movlw	0
  1780  01BF  00D2               	movwf	(___ftmul@f3_as_product+1)
  1781  01C0  3000               	movlw	0
  1782  01C1  00D3               	movwf	(___ftmul@f3_as_product+2)
  1783                           	line	69
  1784                           	
  1785  01C2                     l2986:	
  1786  01C2  3007               	movlw	(07h)
  1787  01C3  00CC               	movwf	(??___ftmul+0)+0
  1788  01C4  084C               	movf	(??___ftmul+0)+0,w
  1789  01C5  00D4               	movwf	(___ftmul@cntr)
  1790  01C6  29C7               	goto	l2988
  1791                           	line	70
  1792                           	
  1793  01C7                     l1079:	
  1794                           	line	71
  1795                           	
  1796  01C7                     l2988:	
  1797  01C7  1C46               	btfss	(___ftmul@f1),(0)&7
  1798  01C8  29CA               	goto	u3401
  1799  01C9  29CB               	goto	u3400
  1800  01CA                     u3401:
  1801  01CA  29DC               	goto	l2992
  1802  01CB                     u3400:
  1803                           	line	72
  1804                           	
  1805  01CB                     l2990:	
  1806  01CB  0849               	movf	(___ftmul@f2),w
  1807  01CC  07D1               	addwf	(___ftmul@f3_as_product),f
  1808  01CD  084A               	movf	(___ftmul@f2+1),w
  1809  01CE  1103               	clrz
  1810  01CF  1803               	skipnc
  1811  01D0  0A4A               	incf	(___ftmul@f2+1),w
  1812  01D1  1903               	skipnz
  1813  01D2  29D4               	goto	u3411
  1814  01D3  07D2               	addwf	(___ftmul@f3_as_product+1),f
  1815  01D4                     u3411:
  1816  01D4  084B               	movf	(___ftmul@f2+2),w
  1817  01D5  1103               	clrz
  1818  01D6  1803               	skipnc
  1819  01D7  0A4B               	incf	(___ftmul@f2+2),w
  1820  01D8  1903               	skipnz
  1821  01D9  29DB               	goto	u3412
  1822  01DA  07D3               	addwf	(___ftmul@f3_as_product+2),f
  1823  01DB                     u3412:
  1824                           
  1825  01DB  29DC               	goto	l2992
  1826                           	
  1827  01DC                     l1080:	
  1828                           	line	73
  1829                           	
  1830  01DC                     l2992:	
  1831  01DC  3001               	movlw	01h
  1832  01DD                     u3425:
  1833  01DD  1003               	clrc
  1834  01DE  0CC8               	rrf	(___ftmul@f1+2),f
  1835  01DF  0CC7               	rrf	(___ftmul@f1+1),f
  1836  01E0  0CC6               	rrf	(___ftmul@f1),f
  1837  01E1  3EFF               	addlw	-1
  1838  01E2  1D03               	skipz
  1839  01E3  29DD               	goto	u3425
  1840                           
  1841                           	line	74
  1842                           	
  1843  01E4                     l2994:	
  1844  01E4  3001               	movlw	01h
  1845  01E5                     u3435:
  1846  01E5  1003               	clrc
  1847  01E6  0DC9               	rlf	(___ftmul@f2),f
  1848  01E7  0DCA               	rlf	(___ftmul@f2+1),f
  1849  01E8  0DCB               	rlf	(___ftmul@f2+2),f
  1850  01E9  3EFF               	addlw	-1
  1851  01EA  1D03               	skipz
  1852  01EB  29E5               	goto	u3435
  1853                           	line	75
  1854                           	
  1855  01EC                     l2996:	
  1856  01EC  3001               	movlw	low(01h)
  1857  01ED  02D4               	subwf	(___ftmul@cntr),f
  1858  01EE  1D03               	btfss	status,2
  1859  01EF  29F1               	goto	u3441
  1860  01F0  29F2               	goto	u3440
  1861  01F1                     u3441:
  1862  01F1  29C7               	goto	l2988
  1863  01F2                     u3440:
  1864  01F2  29F3               	goto	l2998
  1865                           	
  1866  01F3                     l1081:	
  1867                           	line	76
  1868                           	
  1869  01F3                     l2998:	
  1870  01F3  3009               	movlw	(09h)
  1871  01F4  00CC               	movwf	(??___ftmul+0)+0
  1872  01F5  084C               	movf	(??___ftmul+0)+0,w
  1873  01F6  00D4               	movwf	(___ftmul@cntr)
  1874  01F7  29F8               	goto	l3000
  1875                           	line	77
  1876                           	
  1877  01F8                     l1082:	
  1878                           	line	78
  1879                           	
  1880  01F8                     l3000:	
  1881  01F8  1C46               	btfss	(___ftmul@f1),(0)&7
  1882  01F9  29FB               	goto	u3451
  1883  01FA  29FC               	goto	u3450
  1884  01FB                     u3451:
  1885  01FB  2A0D               	goto	l3004
  1886  01FC                     u3450:
  1887                           	line	79
  1888                           	
  1889  01FC                     l3002:	
  1890  01FC  0849               	movf	(___ftmul@f2),w
  1891  01FD  07D1               	addwf	(___ftmul@f3_as_product),f
  1892  01FE  084A               	movf	(___ftmul@f2+1),w
  1893  01FF  1103               	clrz
  1894  0200  1803               	skipnc
  1895  0201  0A4A               	incf	(___ftmul@f2+1),w
  1896  0202  1903               	skipnz
  1897  0203  2A05               	goto	u3461
  1898  0204  07D2               	addwf	(___ftmul@f3_as_product+1),f
  1899  0205                     u3461:
  1900  0205  084B               	movf	(___ftmul@f2+2),w
  1901  0206  1103               	clrz
  1902  0207  1803               	skipnc
  1903  0208  0A4B               	incf	(___ftmul@f2+2),w
  1904  0209  1903               	skipnz
  1905  020A  2A0C               	goto	u3462
  1906  020B  07D3               	addwf	(___ftmul@f3_as_product+2),f
  1907  020C                     u3462:
  1908                           
  1909  020C  2A0D               	goto	l3004
  1910                           	
  1911  020D                     l1083:	
  1912                           	line	80
  1913                           	
  1914  020D                     l3004:	
  1915  020D  3001               	movlw	01h
  1916  020E                     u3475:
  1917  020E  1003               	clrc
  1918  020F  0CC8               	rrf	(___ftmul@f1+2),f
  1919  0210  0CC7               	rrf	(___ftmul@f1+1),f
  1920  0211  0CC6               	rrf	(___ftmul@f1),f
  1921  0212  3EFF               	addlw	-1
  1922  0213  1D03               	skipz
  1923  0214  2A0E               	goto	u3475
  1924                           
  1925                           	line	81
  1926                           	
  1927  0215                     l3006:	
  1928  0215  3001               	movlw	01h
  1929  0216                     u3485:
  1930  0216  1003               	clrc
  1931  0217  0CD3               	rrf	(___ftmul@f3_as_product+2),f
  1932  0218  0CD2               	rrf	(___ftmul@f3_as_product+1),f
  1933  0219  0CD1               	rrf	(___ftmul@f3_as_product),f
  1934  021A  3EFF               	addlw	-1
  1935  021B  1D03               	skipz
  1936  021C  2A16               	goto	u3485
  1937                           
  1938                           	line	82
  1939                           	
  1940  021D                     l3008:	
  1941  021D  3001               	movlw	low(01h)
  1942  021E  02D4               	subwf	(___ftmul@cntr),f
  1943  021F  1D03               	btfss	status,2
  1944  0220  2A22               	goto	u3491
  1945  0221  2A23               	goto	u3490
  1946  0222                     u3491:
  1947  0222  29F8               	goto	l3000
  1948  0223                     u3490:
  1949  0223  2A24               	goto	l3010
  1950                           	
  1951  0224                     l1084:	
  1952                           	line	83
  1953                           	
  1954  0224                     l3010:	
  1955  0224  0851               	movf	(___ftmul@f3_as_product),w
  1956  0225  00A0               	movwf	(?___ftpack)
  1957  0226  0852               	movf	(___ftmul@f3_as_product+1),w
  1958  0227  00A1               	movwf	(?___ftpack+1)
  1959  0228  0853               	movf	(___ftmul@f3_as_product+2),w
  1960  0229  00A2               	movwf	(?___ftpack+2)
  1961  022A  0850               	movf	(___ftmul@exp),w
  1962  022B  00CC               	movwf	(??___ftmul+0)+0
  1963  022C  084C               	movf	(??___ftmul+0)+0,w
  1964  022D  00A3               	movwf	0+(?___ftpack)+03h
  1965  022E  0855               	movf	(___ftmul@sign),w
  1966  022F  00CD               	movwf	(??___ftmul+1)+0
  1967  0230  084D               	movf	(??___ftmul+1)+0,w
  1968  0231  00A4               	movwf	0+(?___ftpack)+04h
  1969  0232  23A7               	fcall	___ftpack
  1970  0233  1283               	bcf	status, 5	;RP0=0, select bank0
  1971  0234  1303               	bcf	status, 6	;RP1=0, select bank0
  1972  0235  0820               	movf	(0+(?___ftpack)),w
  1973  0236  00C6               	movwf	(?___ftmul)
  1974  0237  0821               	movf	(1+(?___ftpack)),w
  1975  0238  00C7               	movwf	(?___ftmul+1)
  1976  0239  0822               	movf	(2+(?___ftpack)),w
  1977  023A  00C8               	movwf	(?___ftmul+2)
  1978  023B  2A3C               	goto	l1077
  1979                           	
  1980  023C                     l3012:	
  1981                           	line	84
  1982                           	
  1983  023C                     l1077:	
  1984  023C  0008               	return
  1985                           	opt stack 0
  1986                           GLOBAL	__end_of___ftmul
  1987  023D                     	__end_of___ftmul:
  1988 ;; =============== function ___ftmul ends ============
  1989                           
  1990                           	signat	___ftmul,8315
  1991                           	global	___ftdiv
  1992                           psect	text435,local,class=CODE,delta=2
  1993                           global __ptext435
  1994  023D                     __ptext435:
  1995                           
  1996 ;; *************** function ___ftdiv *****************
  1997 ;; Defined at:
  1998 ;;		line 50 in file "C:\Program Files (x86)\HI-TECH Software\PICC\9.82\sources\ftdiv.c"
  1999 ;; Parameters:    Size  Location     Type
  2000 ;;  f2              3   22[BANK0 ] float 
  2001 ;;  f1              3   25[BANK0 ] float 
  2002 ;; Auto vars:     Size  Location     Type
  2003 ;;  f3              3   33[BANK0 ] float 
  2004 ;;  sign            1   37[BANK0 ] unsigned char 
  2005 ;;  exp             1   36[BANK0 ] unsigned char 
  2006 ;;  cntr            1   32[BANK0 ] unsigned char 
  2007 ;; Return value:  Size  Location     Type
  2008 ;;                  3   22[BANK0 ] float 
  2009 ;; Registers used:
  2010 ;;		wreg, status,2, status,0, pclath, cstack
  2011 ;; Tracked objects:
  2012 ;;		On entry : 0/0
  2013 ;;		On exit  : 0/0
  2014 ;;		Unchanged: 0/0
  2015 ;; Data sizes:     COMMON   BANK0   BANK1   BANK2
  2016 ;;      Params:         0       6       0       0
  2017 ;;      Locals:         0       6       0       0
  2018 ;;      Temps:          0       4       0       0
  2019 ;;      Totals:         0      16       0       0
  2020 ;;Total ram usage:       16 bytes
  2021 ;; Hardware stack levels used:    1
  2022 ;; Hardware stack levels required when called:    4
  2023 ;; This function calls:
  2024 ;;		___ftpack
  2025 ;; This function is called by:
  2026 ;;		_main
  2027 ;; This function uses a non-reentrant model
  2028 ;;
  2029                           psect	text435
  2030                           	file	"C:\Program Files (x86)\HI-TECH Software\PICC\9.82\sources\ftdiv.c"
  2031                           	line	50
  2032                           	global	__size_of___ftdiv
  2033  00C4                     	__size_of___ftdiv	equ	__end_of___ftdiv-___ftdiv
  2034                           	
  2035  023D                     ___ftdiv:	
  2036                           	opt	stack 3
  2037                           ; Regs used in ___ftdiv: [wreg+status,2+status,0+pclath+cstack]
  2038                           	line	55
  2039                           	
  2040  023D                     l2922:	
  2041  023D  1283               	bcf	status, 5	;RP0=0, select bank0
  2042  023E  1303               	bcf	status, 6	;RP1=0, select bank0
  2043  023F  0839               	movf	(___ftdiv@f1),w
  2044  0240  00BC               	movwf	((??___ftdiv+0)+0)
  2045  0241  083A               	movf	(___ftdiv@f1+1),w
  2046  0242  00BD               	movwf	((??___ftdiv+0)+0+1)
  2047  0243  083B               	movf	(___ftdiv@f1+2),w
  2048  0244  00BE               	movwf	((??___ftdiv+0)+0+2)
  2049  0245  1003               	clrc
  2050  0246  0D3D               	rlf	(??___ftdiv+0)+1,w
  2051  0247  0D3E               	rlf	(??___ftdiv+0)+2,w
  2052  0248  00BF               	movwf	(??___ftdiv+3)+0
  2053  0249  083F               	movf	(??___ftdiv+3)+0,w
  2054  024A  00C4               	movwf	(___ftdiv@exp)
  2055  024B  08C4               	movf	((___ftdiv@exp)),f
  2056  024C  1D03               	skipz
  2057  024D  2A4F               	goto	u3281
  2058  024E  2A50               	goto	u3280
  2059  024F                     u3281:
  2060  024F  2A58               	goto	l2928
  2061  0250                     u3280:
  2062                           	line	56
  2063                           	
  2064  0250                     l2924:	
  2065  0250  3000               	movlw	0x0
  2066  0251  00B6               	movwf	(?___ftdiv)
  2067  0252  3000               	movlw	0x0
  2068  0253  00B7               	movwf	(?___ftdiv+1)
  2069  0254  3000               	movlw	0x0
  2070  0255  00B8               	movwf	(?___ftdiv+2)
  2071  0256  2B00               	goto	l1067
  2072                           	
  2073  0257                     l2926:	
  2074  0257  2B00               	goto	l1067
  2075                           	
  2076  0258                     l1066:	
  2077                           	line	57
  2078                           	
  2079  0258                     l2928:	
  2080  0258  0836               	movf	(___ftdiv@f2),w
  2081  0259  00BC               	movwf	((??___ftdiv+0)+0)
  2082  025A  0837               	movf	(___ftdiv@f2+1),w
  2083  025B  00BD               	movwf	((??___ftdiv+0)+0+1)
  2084  025C  0838               	movf	(___ftdiv@f2+2),w
  2085  025D  00BE               	movwf	((??___ftdiv+0)+0+2)
  2086  025E  1003               	clrc
  2087  025F  0D3D               	rlf	(??___ftdiv+0)+1,w
  2088  0260  0D3E               	rlf	(??___ftdiv+0)+2,w
  2089  0261  00BF               	movwf	(??___ftdiv+3)+0
  2090  0262  083F               	movf	(??___ftdiv+3)+0,w
  2091  0263  00C5               	movwf	(___ftdiv@sign)
  2092  0264  08C5               	movf	((___ftdiv@sign)),f
  2093  0265  1D03               	skipz
  2094  0266  2A68               	goto	u3291
  2095  0267  2A69               	goto	u3290
  2096  0268                     u3291:
  2097  0268  2A71               	goto	l2934
  2098  0269                     u3290:
  2099                           	line	58
  2100                           	
  2101  0269                     l2930:	
  2102  0269  3000               	movlw	0x0
  2103  026A  00B6               	movwf	(?___ftdiv)
  2104  026B  3000               	movlw	0x0
  2105  026C  00B7               	movwf	(?___ftdiv+1)
  2106  026D  3000               	movlw	0x0
  2107  026E  00B8               	movwf	(?___ftdiv+2)
  2108  026F  2B00               	goto	l1067
  2109                           	
  2110  0270                     l2932:	
  2111  0270  2B00               	goto	l1067
  2112                           	
  2113  0271                     l1068:	
  2114                           	line	59
  2115                           	
  2116  0271                     l2934:	
  2117  0271  3000               	movlw	0
  2118  0272  00C1               	movwf	(___ftdiv@f3)
  2119  0273  3000               	movlw	0
  2120  0274  00C2               	movwf	(___ftdiv@f3+1)
  2121  0275  3000               	movlw	0
  2122  0276  00C3               	movwf	(___ftdiv@f3+2)
  2123                           	line	60
  2124                           	
  2125  0277                     l2936:	
  2126  0277  3089               	movlw	(089h)
  2127  0278  0745               	addwf	(___ftdiv@sign),w
  2128  0279  00BC               	movwf	(??___ftdiv+0)+0
  2129  027A  083C               	movf	0+(??___ftdiv+0)+0,w
  2130  027B  02C4               	subwf	(___ftdiv@exp),f
  2131                           	line	61
  2132                           	
  2133  027C                     l2938:	
  2134  027C  0839               	movf	(___ftdiv@f1),w
  2135  027D  00BC               	movwf	((??___ftdiv+0)+0)
  2136  027E  083A               	movf	(___ftdiv@f1+1),w
  2137  027F  00BD               	movwf	((??___ftdiv+0)+0+1)
  2138  0280  083B               	movf	(___ftdiv@f1+2),w
  2139  0281  00BE               	movwf	((??___ftdiv+0)+0+2)
  2140  0282  3010               	movlw	010h
  2141  0283                     u3305:
  2142  0283  1003               	clrc
  2143  0284  0CBE               	rrf	(??___ftdiv+0)+2,f
  2144  0285  0CBD               	rrf	(??___ftdiv+0)+1,f
  2145  0286  0CBC               	rrf	(??___ftdiv+0)+0,f
  2146  0287                     u3300:
  2147  0287  3EFF               	addlw	-1
  2148  0288  1D03               	skipz
  2149  0289  2A83               	goto	u3305
  2150  028A  083C               	movf	0+(??___ftdiv+0)+0,w
  2151  028B  00BF               	movwf	(??___ftdiv+3)+0
  2152  028C  083F               	movf	(??___ftdiv+3)+0,w
  2153  028D  00C5               	movwf	(___ftdiv@sign)
  2154                           	line	62
  2155                           	
  2156  028E                     l2940:	
  2157  028E  0836               	movf	(___ftdiv@f2),w
  2158  028F  00BC               	movwf	((??___ftdiv+0)+0)
  2159  0290  0837               	movf	(___ftdiv@f2+1),w
  2160  0291  00BD               	movwf	((??___ftdiv+0)+0+1)
  2161  0292  0838               	movf	(___ftdiv@f2+2),w
  2162  0293  00BE               	movwf	((??___ftdiv+0)+0+2)
  2163  0294  3010               	movlw	010h
  2164  0295                     u3315:
  2165  0295  1003               	clrc
  2166  0296  0CBE               	rrf	(??___ftdiv+0)+2,f
  2167  0297  0CBD               	rrf	(??___ftdiv+0)+1,f
  2168  0298  0CBC               	rrf	(??___ftdiv+0)+0,f
  2169  0299                     u3310:
  2170  0299  3EFF               	addlw	-1
  2171  029A  1D03               	skipz
  2172  029B  2A95               	goto	u3315
  2173  029C  083C               	movf	0+(??___ftdiv+0)+0,w
  2174  029D  00BF               	movwf	(??___ftdiv+3)+0
  2175  029E  083F               	movf	(??___ftdiv+3)+0,w
  2176  029F  06C5               	xorwf	(___ftdiv@sign),f
  2177                           	line	63
  2178                           	
  2179  02A0                     l2942:	
  2180  02A0  3080               	movlw	(080h)
  2181  02A1  00BC               	movwf	(??___ftdiv+0)+0
  2182  02A2  083C               	movf	(??___ftdiv+0)+0,w
  2183  02A3  05C5               	andwf	(___ftdiv@sign),f
  2184                           	line	64
  2185                           	
  2186  02A4                     l2944:	
  2187  02A4  17BA               	bsf	(___ftdiv@f1)+(15/8),(15)&7
  2188                           	line	65
  2189  02A5  30FF               	movlw	0FFh
  2190  02A6  05B9               	andwf	(___ftdiv@f1),f
  2191  02A7  30FF               	movlw	0FFh
  2192  02A8  05BA               	andwf	(___ftdiv@f1+1),f
  2193  02A9  3000               	movlw	0
  2194  02AA  05BB               	andwf	(___ftdiv@f1+2),f
  2195                           	line	66
  2196                           	
  2197  02AB                     l2946:	
  2198  02AB  17B7               	bsf	(___ftdiv@f2)+(15/8),(15)&7
  2199                           	line	67
  2200  02AC  30FF               	movlw	0FFh
  2201  02AD  05B6               	andwf	(___ftdiv@f2),f
  2202  02AE  30FF               	movlw	0FFh
  2203  02AF  05B7               	andwf	(___ftdiv@f2+1),f
  2204  02B0  3000               	movlw	0
  2205  02B1  05B8               	andwf	(___ftdiv@f2+2),f
  2206                           	line	68
  2207  02B2  3018               	movlw	(018h)
  2208  02B3  00BC               	movwf	(??___ftdiv+0)+0
  2209  02B4  083C               	movf	(??___ftdiv+0)+0,w
  2210  02B5  00C0               	movwf	(___ftdiv@cntr)
  2211  02B6  2AB7               	goto	l2948
  2212                           	line	69
  2213                           	
  2214  02B7                     l1069:	
  2215                           	line	70
  2216                           	
  2217  02B7                     l2948:	
  2218  02B7  3001               	movlw	01h
  2219  02B8                     u3325:
  2220  02B8  1003               	clrc
  2221  02B9  0DC1               	rlf	(___ftdiv@f3),f
  2222  02BA  0DC2               	rlf	(___ftdiv@f3+1),f
  2223  02BB  0DC3               	rlf	(___ftdiv@f3+2),f
  2224  02BC  3EFF               	addlw	-1
  2225  02BD  1D03               	skipz
  2226  02BE  2AB8               	goto	u3325
  2227                           	line	71
  2228                           	
  2229  02BF                     l2950:	
  2230  02BF  0838               	movf	(___ftdiv@f2+2),w
  2231  02C0  023B               	subwf	(___ftdiv@f1+2),w
  2232  02C1  1D03               	skipz
  2233  02C2  2AC9               	goto	u3335
  2234  02C3  0837               	movf	(___ftdiv@f2+1),w
  2235  02C4  023A               	subwf	(___ftdiv@f1+1),w
  2236  02C5  1D03               	skipz
  2237  02C6  2AC9               	goto	u3335
  2238  02C7  0836               	movf	(___ftdiv@f2),w
  2239  02C8  0239               	subwf	(___ftdiv@f1),w
  2240  02C9                     u3335:
  2241  02C9  1C03               	skipc
  2242  02CA  2ACC               	goto	u3331
  2243  02CB  2ACD               	goto	u3330
  2244  02CC                     u3331:
  2245  02CC  2AD9               	goto	l2956
  2246  02CD                     u3330:
  2247                           	line	72
  2248                           	
  2249  02CD                     l2952:	
  2250  02CD  0836               	movf	(___ftdiv@f2),w
  2251  02CE  02B9               	subwf	(___ftdiv@f1),f
  2252  02CF  0837               	movf	(___ftdiv@f2+1),w
  2253  02D0  1C03               	skipc
  2254  02D1  0F37               	incfsz	(___ftdiv@f2+1),w
  2255  02D2  02BA               	subwf	(___ftdiv@f1+1),f
  2256  02D3  0838               	movf	(___ftdiv@f2+2),w
  2257  02D4  1C03               	skipc
  2258  02D5  0A38               	incf	(___ftdiv@f2+2),w
  2259  02D6  02BB               	subwf	(___ftdiv@f1+2),f
  2260                           	line	73
  2261                           	
  2262  02D7                     l2954:	
  2263  02D7  1441               	bsf	(___ftdiv@f3)+(0/8),(0)&7
  2264  02D8  2AD9               	goto	l2956
  2265                           	line	74
  2266                           	
  2267  02D9                     l1070:	
  2268                           	line	75
  2269                           	
  2270  02D9                     l2956:	
  2271  02D9  3001               	movlw	01h
  2272  02DA                     u3345:
  2273  02DA  1003               	clrc
  2274  02DB  0DB9               	rlf	(___ftdiv@f1),f
  2275  02DC  0DBA               	rlf	(___ftdiv@f1+1),f
  2276  02DD  0DBB               	rlf	(___ftdiv@f1+2),f
  2277  02DE  3EFF               	addlw	-1
  2278  02DF  1D03               	skipz
  2279  02E0  2ADA               	goto	u3345
  2280                           	line	76
  2281                           	
  2282  02E1                     l2958:	
  2283  02E1  3001               	movlw	low(01h)
  2284  02E2  02C0               	subwf	(___ftdiv@cntr),f
  2285  02E3  1D03               	btfss	status,2
  2286  02E4  2AE6               	goto	u3351
  2287  02E5  2AE7               	goto	u3350
  2288  02E6                     u3351:
  2289  02E6  2AB7               	goto	l2948
  2290  02E7                     u3350:
  2291  02E7  2AE8               	goto	l2960
  2292                           	
  2293  02E8                     l1071:	
  2294                           	line	77
  2295                           	
  2296  02E8                     l2960:	
  2297  02E8  0841               	movf	(___ftdiv@f3),w
  2298  02E9  00A0               	movwf	(?___ftpack)
  2299  02EA  0842               	movf	(___ftdiv@f3+1),w
  2300  02EB  00A1               	movwf	(?___ftpack+1)
  2301  02EC  0843               	movf	(___ftdiv@f3+2),w
  2302  02ED  00A2               	movwf	(?___ftpack+2)
  2303  02EE  0844               	movf	(___ftdiv@exp),w
  2304  02EF  00BC               	movwf	(??___ftdiv+0)+0
  2305  02F0  083C               	movf	(??___ftdiv+0)+0,w
  2306  02F1  00A3               	movwf	0+(?___ftpack)+03h
  2307  02F2  0845               	movf	(___ftdiv@sign),w
  2308  02F3  00BD               	movwf	(??___ftdiv+1)+0
  2309  02F4  083D               	movf	(??___ftdiv+1)+0,w
  2310  02F5  00A4               	movwf	0+(?___ftpack)+04h
  2311  02F6  23A7               	fcall	___ftpack
  2312  02F7  1283               	bcf	status, 5	;RP0=0, select bank0
  2313  02F8  1303               	bcf	status, 6	;RP1=0, select bank0
  2314  02F9  0820               	movf	(0+(?___ftpack)),w
  2315  02FA  00B6               	movwf	(?___ftdiv)
  2316  02FB  0821               	movf	(1+(?___ftpack)),w
  2317  02FC  00B7               	movwf	(?___ftdiv+1)
  2318  02FD  0822               	movf	(2+(?___ftpack)),w
  2319  02FE  00B8               	movwf	(?___ftdiv+2)
  2320  02FF  2B00               	goto	l1067
  2321                           	
  2322  0300                     l2962:	
  2323                           	line	78
  2324                           	
  2325  0300                     l1067:	
  2326  0300  0008               	return
  2327                           	opt stack 0
  2328                           GLOBAL	__end_of___ftdiv
  2329  0301                     	__end_of___ftdiv:
  2330 ;; =============== function ___ftdiv ends ============
  2331                           
  2332                           	signat	___ftdiv,8315
  2333                           	global	___ftadd
  2334                           psect	text436,local,class=CODE,delta=2
  2335                           global __ptext436
  2336  0011                     __ptext436:
  2337                           
  2338 ;; *************** function ___ftadd *****************
  2339 ;; Defined at:
  2340 ;;		line 87 in file "C:\Program Files (x86)\HI-TECH Software\PICC\9.82\sources\ftadd.c"
  2341 ;; Parameters:    Size  Location     Type
  2342 ;;  f1              3   33[BANK0 ] float 
  2343 ;;  f2              3   36[BANK0 ] float 
  2344 ;; Auto vars:     Size  Location     Type
  2345 ;;  exp1            1   45[BANK0 ] unsigned char 
  2346 ;;  exp2            1   44[BANK0 ] unsigned char 
  2347 ;;  sign            1   43[BANK0 ] unsigned char 
  2348 ;; Return value:  Size  Location     Type
  2349 ;;                  3   33[BANK0 ] float 
  2350 ;; Registers used:
  2351 ;;		wreg, status,2, status,0, pclath, cstack
  2352 ;; Tracked objects:
  2353 ;;		On entry : 0/0
  2354 ;;		On exit  : 0/0
  2355 ;;		Unchanged: 0/0
  2356 ;; Data sizes:     COMMON   BANK0   BANK1   BANK2
  2357 ;;      Params:         0       6       0       0
  2358 ;;      Locals:         0       3       0       0
  2359 ;;      Temps:          0       4       0       0
  2360 ;;      Totals:         0      13       0       0
  2361 ;;Total ram usage:       13 bytes
  2362 ;; Hardware stack levels used:    1
  2363 ;; Hardware stack levels required when called:    4
  2364 ;; This function calls:
  2365 ;;		___ftpack
  2366 ;; This function is called by:
  2367 ;;		_round
  2368 ;;		___ftsub
  2369 ;; This function uses a non-reentrant model
  2370 ;;
  2371                           psect	text436
  2372                           	file	"C:\Program Files (x86)\HI-TECH Software\PICC\9.82\sources\ftadd.c"
  2373                           	line	87
  2374                           	global	__size_of___ftadd
  2375  0142                     	__size_of___ftadd	equ	__end_of___ftadd-___ftadd
  2376                           	
  2377  0011                     ___ftadd:	
  2378                           	opt	stack 2
  2379                           ; Regs used in ___ftadd: [wreg+status,2+status,0+pclath+cstack]
  2380                           	line	90
  2381                           	
  2382  0011                     l2852:	
  2383  0011  1283               	bcf	status, 5	;RP0=0, select bank0
  2384  0012  1303               	bcf	status, 6	;RP1=0, select bank0
  2385  0013  0841               	movf	(___ftadd@f1),w
  2386  0014  00C7               	movwf	((??___ftadd+0)+0)
  2387  0015  0842               	movf	(___ftadd@f1+1),w
  2388  0016  00C8               	movwf	((??___ftadd+0)+0+1)
  2389  0017  0843               	movf	(___ftadd@f1+2),w
  2390  0018  00C9               	movwf	((??___ftadd+0)+0+2)
  2391  0019  1003               	clrc
  2392  001A  0D48               	rlf	(??___ftadd+0)+1,w
  2393  001B  0D49               	rlf	(??___ftadd+0)+2,w
  2394  001C  00CA               	movwf	(??___ftadd+3)+0
  2395  001D  084A               	movf	(??___ftadd+3)+0,w
  2396  001E  00CD               	movwf	(___ftadd@exp1)
  2397                           	line	91
  2398  001F  0844               	movf	(___ftadd@f2),w
  2399  0020  00C7               	movwf	((??___ftadd+0)+0)
  2400  0021  0845               	movf	(___ftadd@f2+1),w
  2401  0022  00C8               	movwf	((??___ftadd+0)+0+1)
  2402  0023  0846               	movf	(___ftadd@f2+2),w
  2403  0024  00C9               	movwf	((??___ftadd+0)+0+2)
  2404  0025  1003               	clrc
  2405  0026  0D48               	rlf	(??___ftadd+0)+1,w
  2406  0027  0D49               	rlf	(??___ftadd+0)+2,w
  2407  0028  00CA               	movwf	(??___ftadd+3)+0
  2408  0029  084A               	movf	(??___ftadd+3)+0,w
  2409  002A  00CC               	movwf	(___ftadd@exp2)
  2410                           	line	92
  2411                           	
  2412  002B                     l2854:	
  2413  002B  084D               	movf	(___ftadd@exp1),w
  2414  002C  1D03               	skipz
  2415  002D  282F               	goto	u3040
  2416  002E  2840               	goto	l2860
  2417  002F                     u3040:
  2418                           	
  2419  002F                     l2856:	
  2420  002F  084C               	movf	(___ftadd@exp2),w
  2421  0030  024D               	subwf	(___ftadd@exp1),w
  2422  0031  1803               	skipnc
  2423  0032  2834               	goto	u3051
  2424  0033  2835               	goto	u3050
  2425  0034                     u3051:
  2426  0034  2848               	goto	l2864
  2427  0035                     u3050:
  2428                           	
  2429  0035                     l2858:	
  2430  0035  034D               	decf	(___ftadd@exp1),w
  2431  0036  3AFF               	xorlw	0ffh
  2432  0037  074C               	addwf	(___ftadd@exp2),w
  2433  0038  00C7               	movwf	(??___ftadd+0)+0
  2434  0039  3019               	movlw	(019h)
  2435  003A  0247               	subwf	0+(??___ftadd+0)+0,w
  2436  003B  1C03               	skipc
  2437  003C  283E               	goto	u3061
  2438  003D  283F               	goto	u3060
  2439  003E                     u3061:
  2440  003E  2848               	goto	l2864
  2441  003F                     u3060:
  2442  003F  2840               	goto	l2860
  2443                           	
  2444  0040                     l1024:	
  2445                           	line	93
  2446                           	
  2447  0040                     l2860:	
  2448  0040  0844               	movf	(___ftadd@f2),w
  2449  0041  00C1               	movwf	(?___ftadd)
  2450  0042  0845               	movf	(___ftadd@f2+1),w
  2451  0043  00C2               	movwf	(?___ftadd+1)
  2452  0044  0846               	movf	(___ftadd@f2+2),w
  2453  0045  00C3               	movwf	(?___ftadd+2)
  2454  0046  2952               	goto	l1025
  2455                           	
  2456  0047                     l2862:	
  2457  0047  2952               	goto	l1025
  2458                           	
  2459  0048                     l1022:	
  2460                           	line	94
  2461                           	
  2462  0048                     l2864:	
  2463  0048  084C               	movf	(___ftadd@exp2),w
  2464  0049  1D03               	skipz
  2465  004A  284C               	goto	u3070
  2466  004B  285C               	goto	l1028
  2467  004C                     u3070:
  2468                           	
  2469  004C                     l2866:	
  2470  004C  084D               	movf	(___ftadd@exp1),w
  2471  004D  024C               	subwf	(___ftadd@exp2),w
  2472  004E  1803               	skipnc
  2473  004F  2851               	goto	u3081
  2474  0050  2852               	goto	u3080
  2475  0051                     u3081:
  2476  0051  285D               	goto	l2870
  2477  0052                     u3080:
  2478                           	
  2479  0052                     l2868:	
  2480  0052  034C               	decf	(___ftadd@exp2),w
  2481  0053  3AFF               	xorlw	0ffh
  2482  0054  074D               	addwf	(___ftadd@exp1),w
  2483  0055  00C7               	movwf	(??___ftadd+0)+0
  2484  0056  3019               	movlw	(019h)
  2485  0057  0247               	subwf	0+(??___ftadd+0)+0,w
  2486  0058  1C03               	skipc
  2487  0059  285B               	goto	u3091
  2488  005A  285C               	goto	u3090
  2489  005B                     u3091:
  2490  005B  285D               	goto	l2870
  2491  005C                     u3090:
  2492                           	
  2493  005C                     l1028:	
  2494                           	line	95
  2495  005C  2952               	goto	l1025
  2496                           	
  2497  005D                     l1026:	
  2498                           	line	96
  2499                           	
  2500  005D                     l2870:	
  2501  005D  3006               	movlw	(06h)
  2502  005E  00C7               	movwf	(??___ftadd+0)+0
  2503  005F  0847               	movf	(??___ftadd+0)+0,w
  2504  0060  00CB               	movwf	(___ftadd@sign)
  2505                           	line	97
  2506                           	
  2507  0061                     l2872:	
  2508  0061  1FC3               	btfss	(___ftadd@f1+2),(23)&7
  2509  0062  2864               	goto	u3101
  2510  0063  2865               	goto	u3100
  2511  0064                     u3101:
  2512  0064  2866               	goto	l1029
  2513  0065                     u3100:
  2514                           	line	98
  2515                           	
  2516  0065                     l2874:	
  2517  0065  17CB               	bsf	(___ftadd@sign)+(7/8),(7)&7
  2518                           	
  2519  0066                     l1029:	
  2520                           	line	99
  2521  0066  1FC6               	btfss	(___ftadd@f2+2),(23)&7
  2522  0067  2869               	goto	u3111
  2523  0068  286A               	goto	u3110
  2524  0069                     u3111:
  2525  0069  286B               	goto	l1030
  2526  006A                     u3110:
  2527                           	line	100
  2528                           	
  2529  006A                     l2876:	
  2530  006A  174B               	bsf	(___ftadd@sign)+(6/8),(6)&7
  2531                           	
  2532  006B                     l1030:	
  2533                           	line	101
  2534  006B  17C2               	bsf	(___ftadd@f1)+(15/8),(15)&7
  2535                           	line	102
  2536                           	
  2537  006C                     l2878:	
  2538  006C  30FF               	movlw	0FFh
  2539  006D  05C1               	andwf	(___ftadd@f1),f
  2540  006E  30FF               	movlw	0FFh
  2541  006F  05C2               	andwf	(___ftadd@f1+1),f
  2542  0070  3000               	movlw	0
  2543  0071  05C3               	andwf	(___ftadd@f1+2),f
  2544                           	line	103
  2545                           	
  2546  0072                     l2880:	
  2547  0072  17C5               	bsf	(___ftadd@f2)+(15/8),(15)&7
  2548                           	line	104
  2549  0073  30FF               	movlw	0FFh
  2550  0074  05C4               	andwf	(___ftadd@f2),f
  2551  0075  30FF               	movlw	0FFh
  2552  0076  05C5               	andwf	(___ftadd@f2+1),f
  2553  0077  3000               	movlw	0
  2554  0078  05C6               	andwf	(___ftadd@f2+2),f
  2555                           	line	106
  2556  0079  084C               	movf	(___ftadd@exp2),w
  2557  007A  024D               	subwf	(___ftadd@exp1),w
  2558  007B  1803               	skipnc
  2559  007C  287E               	goto	u3121
  2560  007D  287F               	goto	u3120
  2561  007E                     u3121:
  2562  007E  28B0               	goto	l2892
  2563  007F                     u3120:
  2564  007F  2880               	goto	l2882
  2565                           	line	109
  2566                           	
  2567  0080                     l1032:	
  2568                           	line	110
  2569                           	
  2570  0080                     l2882:	
  2571  0080  3001               	movlw	01h
  2572  0081                     u3135:
  2573  0081  1003               	clrc
  2574  0082  0DC4               	rlf	(___ftadd@f2),f
  2575  0083  0DC5               	rlf	(___ftadd@f2+1),f
  2576  0084  0DC6               	rlf	(___ftadd@f2+2),f
  2577  0085  3EFF               	addlw	-1
  2578  0086  1D03               	skipz
  2579  0087  2881               	goto	u3135
  2580                           	line	111
  2581  0088  3001               	movlw	low(01h)
  2582  0089  02CC               	subwf	(___ftadd@exp2),f
  2583                           	line	112
  2584                           	
  2585  008A                     l2884:	
  2586  008A  084C               	movf	(___ftadd@exp2),w
  2587  008B  064D               	xorwf	(___ftadd@exp1),w
  2588  008C  1903               	skipnz
  2589  008D  288F               	goto	u3141
  2590  008E  2890               	goto	u3140
  2591  008F                     u3141:
  2592  008F  28A8               	goto	l2890
  2593  0090                     u3140:
  2594                           	
  2595  0090                     l2886:	
  2596  0090  3001               	movlw	low(01h)
  2597  0091  02CB               	subwf	(___ftadd@sign),f
  2598  0092  084B               	movf	((___ftadd@sign)),w
  2599  0093  3907               	andlw	07h
  2600  0094  1D03               	btfss	status,2
  2601  0095  2897               	goto	u3151
  2602  0096  2898               	goto	u3150
  2603  0097                     u3151:
  2604  0097  2880               	goto	l2882
  2605  0098                     u3150:
  2606  0098  28A8               	goto	l2890
  2607                           	
  2608  0099                     l1034:	
  2609  0099  28A8               	goto	l2890
  2610                           	
  2611  009A                     l1035:	
  2612                           	line	113
  2613  009A  28A8               	goto	l2890
  2614                           	
  2615  009B                     l1037:	
  2616                           	line	114
  2617                           	
  2618  009B                     l2888:	
  2619  009B  3001               	movlw	01h
  2620  009C                     u3165:
  2621  009C  1003               	clrc
  2622  009D  0CC3               	rrf	(___ftadd@f1+2),f
  2623  009E  0CC2               	rrf	(___ftadd@f1+1),f
  2624  009F  0CC1               	rrf	(___ftadd@f1),f
  2625  00A0  3EFF               	addlw	-1
  2626  00A1  1D03               	skipz
  2627  00A2  289C               	goto	u3165
  2628                           
  2629                           	line	115
  2630  00A3  3001               	movlw	(01h)
  2631  00A4  00C7               	movwf	(??___ftadd+0)+0
  2632  00A5  0847               	movf	(??___ftadd+0)+0,w
  2633  00A6  07CD               	addwf	(___ftadd@exp1),f
  2634  00A7  28A8               	goto	l2890
  2635                           	line	116
  2636                           	
  2637  00A8                     l1036:	
  2638                           	line	113
  2639                           	
  2640  00A8                     l2890:	
  2641  00A8  084D               	movf	(___ftadd@exp1),w
  2642  00A9  064C               	xorwf	(___ftadd@exp2),w
  2643  00AA  1D03               	skipz
  2644  00AB  28AD               	goto	u3171
  2645  00AC  28AE               	goto	u3170
  2646  00AD                     u3171:
  2647  00AD  289B               	goto	l2888
  2648  00AE                     u3170:
  2649  00AE  28E7               	goto	l1039
  2650                           	
  2651  00AF                     l1038:	
  2652                           	line	117
  2653  00AF  28E7               	goto	l1039
  2654                           	
  2655  00B0                     l1031:	
  2656                           	
  2657  00B0                     l2892:	
  2658  00B0  084D               	movf	(___ftadd@exp1),w
  2659  00B1  024C               	subwf	(___ftadd@exp2),w
  2660  00B2  1803               	skipnc
  2661  00B3  28B5               	goto	u3181
  2662  00B4  28B6               	goto	u3180
  2663  00B5                     u3181:
  2664  00B5  28E7               	goto	l1039
  2665  00B6                     u3180:
  2666  00B6  28B7               	goto	l2894
  2667                           	line	120
  2668                           	
  2669  00B7                     l1041:	
  2670                           	line	121
  2671                           	
  2672  00B7                     l2894:	
  2673  00B7  3001               	movlw	01h
  2674  00B8                     u3195:
  2675  00B8  1003               	clrc
  2676  00B9  0DC1               	rlf	(___ftadd@f1),f
  2677  00BA  0DC2               	rlf	(___ftadd@f1+1),f
  2678  00BB  0DC3               	rlf	(___ftadd@f1+2),f
  2679  00BC  3EFF               	addlw	-1
  2680  00BD  1D03               	skipz
  2681  00BE  28B8               	goto	u3195
  2682                           	line	122
  2683  00BF  3001               	movlw	low(01h)
  2684  00C0  02CD               	subwf	(___ftadd@exp1),f
  2685                           	line	123
  2686                           	
  2687  00C1                     l2896:	
  2688  00C1  084C               	movf	(___ftadd@exp2),w
  2689  00C2  064D               	xorwf	(___ftadd@exp1),w
  2690  00C3  1903               	skipnz
  2691  00C4  28C6               	goto	u3201
  2692  00C5  28C7               	goto	u3200
  2693  00C6                     u3201:
  2694  00C6  28DF               	goto	l2902
  2695  00C7                     u3200:
  2696                           	
  2697  00C7                     l2898:	
  2698  00C7  3001               	movlw	low(01h)
  2699  00C8  02CB               	subwf	(___ftadd@sign),f
  2700  00C9  084B               	movf	((___ftadd@sign)),w
  2701  00CA  3907               	andlw	07h
  2702  00CB  1D03               	btfss	status,2
  2703  00CC  28CE               	goto	u3211
  2704  00CD  28CF               	goto	u3210
  2705  00CE                     u3211:
  2706  00CE  28B7               	goto	l2894
  2707  00CF                     u3210:
  2708  00CF  28DF               	goto	l2902
  2709                           	
  2710  00D0                     l1043:	
  2711  00D0  28DF               	goto	l2902
  2712                           	
  2713  00D1                     l1044:	
  2714                           	line	124
  2715  00D1  28DF               	goto	l2902
  2716                           	
  2717  00D2                     l1046:	
  2718                           	line	125
  2719                           	
  2720  00D2                     l2900:	
  2721  00D2  3001               	movlw	01h
  2722  00D3                     u3225:
  2723  00D3  1003               	clrc
  2724  00D4  0CC6               	rrf	(___ftadd@f2+2),f
  2725  00D5  0CC5               	rrf	(___ftadd@f2+1),f
  2726  00D6  0CC4               	rrf	(___ftadd@f2),f
  2727  00D7  3EFF               	addlw	-1
  2728  00D8  1D03               	skipz
  2729  00D9  28D3               	goto	u3225
  2730                           
  2731                           	line	126
  2732  00DA  3001               	movlw	(01h)
  2733  00DB  00C7               	movwf	(??___ftadd+0)+0
  2734  00DC  0847               	movf	(??___ftadd+0)+0,w
  2735  00DD  07CC               	addwf	(___ftadd@exp2),f
  2736  00DE  28DF               	goto	l2902
  2737                           	line	127
  2738                           	
  2739  00DF                     l1045:	
  2740                           	line	124
  2741                           	
  2742  00DF                     l2902:	
  2743  00DF  084D               	movf	(___ftadd@exp1),w
  2744  00E0  064C               	xorwf	(___ftadd@exp2),w
  2745  00E1  1D03               	skipz
  2746  00E2  28E4               	goto	u3231
  2747  00E3  28E5               	goto	u3230
  2748  00E4                     u3231:
  2749  00E4  28D2               	goto	l2900
  2750  00E5                     u3230:
  2751  00E5  28E7               	goto	l1039
  2752                           	
  2753  00E6                     l1047:	
  2754  00E6  28E7               	goto	l1039
  2755                           	line	128
  2756                           	
  2757  00E7                     l1040:	
  2758                           	line	129
  2759                           	
  2760  00E7                     l1039:	
  2761  00E7  1FCB               	btfss	(___ftadd@sign),(7)&7
  2762  00E8  28EA               	goto	u3241
  2763  00E9  28EB               	goto	u3240
  2764  00EA                     u3241:
  2765  00EA  28FC               	goto	l2906
  2766  00EB                     u3240:
  2767                           	line	131
  2768                           	
  2769  00EB                     l2904:	
  2770  00EB  30FF               	movlw	0FFh
  2771  00EC  06C1               	xorwf	(___ftadd@f1),f
  2772  00ED  30FF               	movlw	0FFh
  2773  00EE  06C2               	xorwf	(___ftadd@f1+1),f
  2774  00EF  30FF               	movlw	0FFh
  2775  00F0  06C3               	xorwf	(___ftadd@f1+2),f
  2776                           	line	132
  2777  00F1  3001               	movlw	01h
  2778  00F2  07C1               	addwf	(___ftadd@f1),f
  2779  00F3  3000               	movlw	0
  2780  00F4  1803               	skipnc
  2781  00F5  3001               movlw 1
  2782  00F6  07C2               	addwf	(___ftadd@f1+1),f
  2783  00F7  3000               	movlw	0
  2784  00F8  1803               	skipnc
  2785  00F9  3001               movlw 1
  2786  00FA  07C3               	addwf	(___ftadd@f1+2),f
  2787  00FB  28FC               	goto	l2906
  2788                           	line	133
  2789                           	
  2790  00FC                     l1048:	
  2791                           	line	134
  2792                           	
  2793  00FC                     l2906:	
  2794  00FC  1F4B               	btfss	(___ftadd@sign),(6)&7
  2795  00FD  28FF               	goto	u3251
  2796  00FE  2900               	goto	u3250
  2797  00FF                     u3251:
  2798  00FF  2911               	goto	l2910
  2799  0100                     u3250:
  2800                           	line	136
  2801                           	
  2802  0100                     l2908:	
  2803  0100  30FF               	movlw	0FFh
  2804  0101  06C4               	xorwf	(___ftadd@f2),f
  2805  0102  30FF               	movlw	0FFh
  2806  0103  06C5               	xorwf	(___ftadd@f2+1),f
  2807  0104  30FF               	movlw	0FFh
  2808  0105  06C6               	xorwf	(___ftadd@f2+2),f
  2809                           	line	137
  2810  0106  3001               	movlw	01h
  2811  0107  07C4               	addwf	(___ftadd@f2),f
  2812  0108  3000               	movlw	0
  2813  0109  1803               	skipnc
  2814  010A  3001               movlw 1
  2815  010B  07C5               	addwf	(___ftadd@f2+1),f
  2816  010C  3000               	movlw	0
  2817  010D  1803               	skipnc
  2818  010E  3001               movlw 1
  2819  010F  07C6               	addwf	(___ftadd@f2+2),f
  2820  0110  2911               	goto	l2910
  2821                           	line	138
  2822                           	
  2823  0111                     l1049:	
  2824                           	line	139
  2825                           	
  2826  0111                     l2910:	
  2827  0111  01CB               	clrf	(___ftadd@sign)
  2828                           	line	140
  2829  0112  0841               	movf	(___ftadd@f1),w
  2830  0113  07C4               	addwf	(___ftadd@f2),f
  2831  0114  0842               	movf	(___ftadd@f1+1),w
  2832  0115  1103               	clrz
  2833  0116  1803               	skipnc
  2834  0117  0A42               	incf	(___ftadd@f1+1),w
  2835  0118  1903               	skipnz
  2836  0119  291B               	goto	u3261
  2837  011A  07C5               	addwf	(___ftadd@f2+1),f
  2838  011B                     u3261:
  2839  011B  0843               	movf	(___ftadd@f1+2),w
  2840  011C  1103               	clrz
  2841  011D  1803               	skipnc
  2842  011E  0A43               	incf	(___ftadd@f1+2),w
  2843  011F  1903               	skipnz
  2844  0120  2922               	goto	u3262
  2845  0121  07C6               	addwf	(___ftadd@f2+2),f
  2846  0122                     u3262:
  2847                           
  2848                           	line	141
  2849                           	
  2850  0122                     l2912:	
  2851  0122  1FC6               	btfss	(___ftadd@f2+2),(23)&7
  2852  0123  2925               	goto	u3271
  2853  0124  2926               	goto	u3270
  2854  0125                     u3271:
  2855  0125  293A               	goto	l2918
  2856  0126                     u3270:
  2857                           	line	142
  2858                           	
  2859  0126                     l2914:	
  2860  0126  30FF               	movlw	0FFh
  2861  0127  06C4               	xorwf	(___ftadd@f2),f
  2862  0128  30FF               	movlw	0FFh
  2863  0129  06C5               	xorwf	(___ftadd@f2+1),f
  2864  012A  30FF               	movlw	0FFh
  2865  012B  06C6               	xorwf	(___ftadd@f2+2),f
  2866                           	line	143
  2867  012C  3001               	movlw	01h
  2868  012D  07C4               	addwf	(___ftadd@f2),f
  2869  012E  3000               	movlw	0
  2870  012F  1803               	skipnc
  2871  0130  3001               movlw 1
  2872  0131  07C5               	addwf	(___ftadd@f2+1),f
  2873  0132  3000               	movlw	0
  2874  0133  1803               	skipnc
  2875  0134  3001               movlw 1
  2876  0135  07C6               	addwf	(___ftadd@f2+2),f
  2877                           	line	144
  2878                           	
  2879  0136                     l2916:	
  2880  0136  01CB               	clrf	(___ftadd@sign)
  2881  0137  1403               	bsf	status,0
  2882  0138  0DCB               	rlf	(___ftadd@sign),f
  2883  0139  293A               	goto	l2918
  2884                           	line	145
  2885                           	
  2886  013A                     l1050:	
  2887                           	line	146
  2888                           	
  2889  013A                     l2918:	
  2890  013A  0844               	movf	(___ftadd@f2),w
  2891  013B  00A0               	movwf	(?___ftpack)
  2892  013C  0845               	movf	(___ftadd@f2+1),w
  2893  013D  00A1               	movwf	(?___ftpack+1)
  2894  013E  0846               	movf	(___ftadd@f2+2),w
  2895  013F  00A2               	movwf	(?___ftpack+2)
  2896  0140  084D               	movf	(___ftadd@exp1),w
  2897  0141  00C7               	movwf	(??___ftadd+0)+0
  2898  0142  0847               	movf	(??___ftadd+0)+0,w
  2899  0143  00A3               	movwf	0+(?___ftpack)+03h
  2900  0144  084B               	movf	(___ftadd@sign),w
  2901  0145  00C8               	movwf	(??___ftadd+1)+0
  2902  0146  0848               	movf	(??___ftadd+1)+0,w
  2903  0147  00A4               	movwf	0+(?___ftpack)+04h
  2904  0148  23A7               	fcall	___ftpack
  2905  0149  1283               	bcf	status, 5	;RP0=0, select bank0
  2906  014A  1303               	bcf	status, 6	;RP1=0, select bank0
  2907  014B  0820               	movf	(0+(?___ftpack)),w
  2908  014C  00C1               	movwf	(?___ftadd)
  2909  014D  0821               	movf	(1+(?___ftpack)),w
  2910  014E  00C2               	movwf	(?___ftadd+1)
  2911  014F  0822               	movf	(2+(?___ftpack)),w
  2912  0150  00C3               	movwf	(?___ftadd+2)
  2913  0151  2952               	goto	l1025
  2914                           	
  2915  0152                     l2920:	
  2916                           	line	148
  2917                           	
  2918  0152                     l1025:	
  2919  0152  0008               	return
  2920                           	opt stack 0
  2921                           GLOBAL	__end_of___ftadd
  2922  0153                     	__end_of___ftadd:
  2923 ;; =============== function ___ftadd ends ============
  2924                           
  2925                           	signat	___ftadd,8315
  2926                           	global	___ftneg
  2927                           psect	text437,local,class=CODE,delta=2
  2928                           global __ptext437
  2929  0688                     __ptext437:
  2930                           
  2931 ;; *************** function ___ftneg *****************
  2932 ;; Defined at:
  2933 ;;		line 16 in file "C:\Program Files (x86)\HI-TECH Software\PICC\9.82\sources\ftneg.c"
  2934 ;; Parameters:    Size  Location     Type
  2935 ;;  f1              3   22[BANK0 ] float 
  2936 ;; Auto vars:     Size  Location     Type
  2937 ;;		None
  2938 ;; Return value:  Size  Location     Type
  2939 ;;                  3   22[BANK0 ] float 
  2940 ;; Registers used:
  2941 ;;		wreg
  2942 ;; Tracked objects:
  2943 ;;		On entry : 0/0
  2944 ;;		On exit  : 0/0
  2945 ;;		Unchanged: 0/0
  2946 ;; Data sizes:     COMMON   BANK0   BANK1   BANK2
  2947 ;;      Params:         0       3       0       0
  2948 ;;      Locals:         0       0       0       0
  2949 ;;      Temps:          0       0       0       0
  2950 ;;      Totals:         0       3       0       0
  2951 ;;Total ram usage:        3 bytes
  2952 ;; Hardware stack levels used:    1
  2953 ;; Hardware stack levels required when called:    3
  2954 ;; This function calls:
  2955 ;;		Nothing
  2956 ;; This function is called by:
  2957 ;;		_round
  2958 ;;		_ldexp
  2959 ;; This function uses a non-reentrant model
  2960 ;;
  2961                           psect	text437
  2962                           	file	"C:\Program Files (x86)\HI-TECH Software\PICC\9.82\sources\ftneg.c"
  2963                           	line	16
  2964                           	global	__size_of___ftneg
  2965  000E                     	__size_of___ftneg	equ	__end_of___ftneg-___ftneg
  2966                           	
  2967  0688                     ___ftneg:	
  2968                           	opt	stack 3
  2969                           ; Regs used in ___ftneg: [wreg]
  2970                           	line	17
  2971                           	
  2972  0688                     l2812:	
  2973  0688  1283               	bcf	status, 5	;RP0=0, select bank0
  2974  0689  1303               	bcf	status, 6	;RP1=0, select bank0
  2975  068A  0838               	movf	(___ftneg@f1+2),w
  2976  068B  0437               	iorwf	(___ftneg@f1+1),w
  2977  068C  0436               	iorwf	(___ftneg@f1),w
  2978  068D  1903               	skipnz
  2979  068E  2E90               	goto	u2941
  2980  068F  2E91               	goto	u2940
  2981  0690                     u2941:
  2982  0690  2E94               	goto	l2816
  2983  0691                     u2940:
  2984                           	line	18
  2985                           	
  2986  0691                     l2814:	
  2987  0691  3080               	movlw	080h
  2988  0692  06B8               	xorwf	(___ftneg@f1+2),f
  2989  0693  2E94               	goto	l2816
  2990                           	
  2991  0694                     l1141:	
  2992                           	line	19
  2993                           	
  2994  0694                     l2816:	
  2995  0694  2E95               	goto	l1142
  2996                           	
  2997  0695                     l2818:	
  2998                           	line	20
  2999                           	
  3000  0695                     l1142:	
  3001  0695  0008               	return
  3002                           	opt stack 0
  3003                           GLOBAL	__end_of___ftneg
  3004  0696                     	__end_of___ftneg:
  3005 ;; =============== function ___ftneg ends ============
  3006                           
  3007                           	signat	___ftneg,4219
  3008                           	global	___fttol
  3009                           psect	text438,local,class=CODE,delta=2
  3010                           global __ptext438
  3011  0301                     __ptext438:
  3012                           
  3013 ;; *************** function ___fttol *****************
  3014 ;; Defined at:
  3015 ;;		line 45 in file "C:\Program Files (x86)\HI-TECH Software\PICC\9.82\sources\fttol.c"
  3016 ;; Parameters:    Size  Location     Type
  3017 ;;  f1              3    8[BANK0 ] float 
  3018 ;; Auto vars:     Size  Location     Type
  3019 ;;  lval            4   17[BANK0 ] unsigned long 
  3020 ;;  exp1            1   21[BANK0 ] unsigned char 
  3021 ;;  sign1           1   16[BANK0 ] unsigned char 
  3022 ;; Return value:  Size  Location     Type
  3023 ;;                  4    8[BANK0 ] long 
  3024 ;; Registers used:
  3025 ;;		wreg, status,2, status,0
  3026 ;; Tracked objects:
  3027 ;;		On entry : 0/0
  3028 ;;		On exit  : 0/0
  3029 ;;		Unchanged: 0/0
  3030 ;; Data sizes:     COMMON   BANK0   BANK1   BANK2
  3031 ;;      Params:         0       4       0       0
  3032 ;;      Locals:         0       6       0       0
  3033 ;;      Temps:          0       4       0       0
  3034 ;;      Totals:         0      14       0       0
  3035 ;;Total ram usage:       14 bytes
  3036 ;; Hardware stack levels used:    1
  3037 ;; Hardware stack levels required when called:    3
  3038 ;; This function calls:
  3039 ;;		Nothing
  3040 ;; This function is called by:
  3041 ;;		_main
  3042 ;;		_trunc
  3043 ;;		_convert_to_duty
  3044 ;; This function uses a non-reentrant model
  3045 ;;
  3046                           psect	text438
  3047                           	file	"C:\Program Files (x86)\HI-TECH Software\PICC\9.82\sources\fttol.c"
  3048                           	line	45
  3049                           	global	__size_of___fttol
  3050  00A6                     	__size_of___fttol	equ	__end_of___fttol-___fttol
  3051                           	
  3052  0301                     ___fttol:	
  3053                           	opt	stack 4
  3054                           ; Regs used in ___fttol: [wreg+status,2+status,0]
  3055                           	line	49
  3056                           	
  3057  0301                     l2748:	
  3058  0301  1283               	bcf	status, 5	;RP0=0, select bank0
  3059  0302  1303               	bcf	status, 6	;RP1=0, select bank0
  3060  0303  0828               	movf	(___fttol@f1),w
  3061  0304  00AC               	movwf	((??___fttol+0)+0)
  3062  0305  0829               	movf	(___fttol@f1+1),w
  3063  0306  00AD               	movwf	((??___fttol+0)+0+1)
  3064  0307  082A               	movf	(___fttol@f1+2),w
  3065  0308  00AE               	movwf	((??___fttol+0)+0+2)
  3066  0309  1003               	clrc
  3067  030A  0D2D               	rlf	(??___fttol+0)+1,w
  3068  030B  0D2E               	rlf	(??___fttol+0)+2,w
  3069  030C  00AF               	movwf	(??___fttol+3)+0
  3070  030D  082F               	movf	(??___fttol+3)+0,w
  3071  030E  00B5               	movwf	(___fttol@exp1)
  3072  030F  08B5               	movf	((___fttol@exp1)),f
  3073  0310  1D03               	skipz
  3074  0311  2B13               	goto	u2821
  3075  0312  2B14               	goto	u2820
  3076  0313                     u2821:
  3077  0313  2B1E               	goto	l2754
  3078  0314                     u2820:
  3079                           	line	50
  3080                           	
  3081  0314                     l2750:	
  3082  0314  3000               	movlw	0
  3083  0315  00AB               	movwf	(?___fttol+3)
  3084  0316  3000               	movlw	0
  3085  0317  00AA               	movwf	(?___fttol+2)
  3086  0318  3000               	movlw	0
  3087  0319  00A9               	movwf	(?___fttol+1)
  3088  031A  3000               	movlw	0
  3089  031B  00A8               	movwf	(?___fttol)
  3090                           
  3091  031C  2BA6               	goto	l1088
  3092                           	
  3093  031D                     l2752:	
  3094  031D  2BA6               	goto	l1088
  3095                           	
  3096  031E                     l1087:	
  3097                           	line	51
  3098                           	
  3099  031E                     l2754:	
  3100  031E  0828               	movf	(___fttol@f1),w
  3101  031F  00AC               	movwf	((??___fttol+0)+0)
  3102  0320  0829               	movf	(___fttol@f1+1),w
  3103  0321  00AD               	movwf	((??___fttol+0)+0+1)
  3104  0322  082A               	movf	(___fttol@f1+2),w
  3105  0323  00AE               	movwf	((??___fttol+0)+0+2)
  3106  0324  3017               	movlw	017h
  3107  0325                     u2835:
  3108  0325  1003               	clrc
  3109  0326  0CAE               	rrf	(??___fttol+0)+2,f
  3110  0327  0CAD               	rrf	(??___fttol+0)+1,f
  3111  0328  0CAC               	rrf	(??___fttol+0)+0,f
  3112  0329                     u2830:
  3113  0329  3EFF               	addlw	-1
  3114  032A  1D03               	skipz
  3115  032B  2B25               	goto	u2835
  3116  032C  082C               	movf	0+(??___fttol+0)+0,w
  3117  032D  00AF               	movwf	(??___fttol+3)+0
  3118  032E  082F               	movf	(??___fttol+3)+0,w
  3119  032F  00B0               	movwf	(___fttol@sign1)
  3120                           	line	52
  3121                           	
  3122  0330                     l2756:	
  3123  0330  17A9               	bsf	(___fttol@f1)+(15/8),(15)&7
  3124                           	line	53
  3125                           	
  3126  0331                     l2758:	
  3127  0331  30FF               	movlw	0FFh
  3128  0332  05A8               	andwf	(___fttol@f1),f
  3129  0333  30FF               	movlw	0FFh
  3130  0334  05A9               	andwf	(___fttol@f1+1),f
  3131  0335  3000               	movlw	0
  3132  0336  05AA               	andwf	(___fttol@f1+2),f
  3133                           	line	54
  3134                           	
  3135  0337                     l2760:	
  3136  0337  0828               	movf	(___fttol@f1),w
  3137  0338  00B1               	movwf	(___fttol@lval)
  3138  0339  0829               	movf	(___fttol@f1+1),w
  3139  033A  00B2               	movwf	((___fttol@lval))+1
  3140  033B  082A               	movf	(___fttol@f1+2),w
  3141  033C  00B3               	movwf	((___fttol@lval))+2
  3142  033D  01B4               	clrf	((___fttol@lval))+3
  3143                           	line	55
  3144                           	
  3145  033E                     l2762:	
  3146  033E  308E               	movlw	low(08Eh)
  3147  033F  02B5               	subwf	(___fttol@exp1),f
  3148                           	line	56
  3149                           	
  3150  0340                     l2764:	
  3151  0340  1FB5               	btfss	(___fttol@exp1),7
  3152  0341  2B43               	goto	u2841
  3153  0342  2B44               	goto	u2840
  3154  0343                     u2841:
  3155  0343  2B69               	goto	l2774
  3156  0344                     u2840:
  3157                           	line	57
  3158                           	
  3159  0344                     l2766:	
  3160  0344  0835               	movf	(___fttol@exp1),w
  3161  0345  3A80               	xorlw	80h
  3162  0346  3E8F               	addlw	-((-15)^80h)
  3163  0347  1803               	skipnc
  3164  0348  2B4A               	goto	u2851
  3165  0349  2B4B               	goto	u2850
  3166  034A                     u2851:
  3167  034A  2B56               	goto	l2772
  3168  034B                     u2850:
  3169                           	line	58
  3170                           	
  3171  034B                     l2768:	
  3172  034B  3000               	movlw	0
  3173  034C  00AB               	movwf	(?___fttol+3)
  3174  034D  3000               	movlw	0
  3175  034E  00AA               	movwf	(?___fttol+2)
  3176  034F  3000               	movlw	0
  3177  0350  00A9               	movwf	(?___fttol+1)
  3178  0351  3000               	movlw	0
  3179  0352  00A8               	movwf	(?___fttol)
  3180                           
  3181  0353  2BA6               	goto	l1088
  3182                           	
  3183  0354                     l2770:	
  3184  0354  2BA6               	goto	l1088
  3185                           	
  3186  0355                     l1090:	
  3187  0355  2B56               	goto	l2772
  3188                           	line	59
  3189                           	
  3190  0356                     l1091:	
  3191                           	line	60
  3192                           	
  3193  0356                     l2772:	
  3194  0356  3001               	movlw	01h
  3195  0357                     u2865:
  3196  0357  1003               	clrc
  3197  0358  0CB4               	rrf	(___fttol@lval+3),f
  3198  0359  0CB3               	rrf	(___fttol@lval+2),f
  3199  035A  0CB2               	rrf	(___fttol@lval+1),f
  3200  035B  0CB1               	rrf	(___fttol@lval),f
  3201  035C  3EFF               	addlw	-1
  3202  035D  1D03               	skipz
  3203  035E  2B57               	goto	u2865
  3204                           
  3205                           	line	61
  3206  035F  3001               	movlw	(01h)
  3207  0360  00AC               	movwf	(??___fttol+0)+0
  3208  0361  082C               	movf	(??___fttol+0)+0,w
  3209  0362  07B5               	addwf	(___fttol@exp1),f
  3210  0363  1D03               	btfss	status,2
  3211  0364  2B66               	goto	u2871
  3212  0365  2B67               	goto	u2870
  3213  0366                     u2871:
  3214  0366  2B56               	goto	l2772
  3215  0367                     u2870:
  3216  0367  2B8D               	goto	l2784
  3217                           	
  3218  0368                     l1092:	
  3219                           	line	62
  3220  0368  2B8D               	goto	l2784
  3221                           	
  3222  0369                     l1089:	
  3223                           	line	63
  3224                           	
  3225  0369                     l2774:	
  3226  0369  3018               	movlw	(018h)
  3227  036A  0235               	subwf	(___fttol@exp1),w
  3228  036B  1C03               	skipc
  3229  036C  2B6E               	goto	u2881
  3230  036D  2B6F               	goto	u2880
  3231  036E                     u2881:
  3232  036E  2B86               	goto	l2782
  3233  036F                     u2880:
  3234                           	line	64
  3235                           	
  3236  036F                     l2776:	
  3237  036F  3000               	movlw	0
  3238  0370  00AB               	movwf	(?___fttol+3)
  3239  0371  3000               	movlw	0
  3240  0372  00AA               	movwf	(?___fttol+2)
  3241  0373  3000               	movlw	0
  3242  0374  00A9               	movwf	(?___fttol+1)
  3243  0375  3000               	movlw	0
  3244  0376  00A8               	movwf	(?___fttol)
  3245                           
  3246  0377  2BA6               	goto	l1088
  3247                           	
  3248  0378                     l2778:	
  3249  0378  2BA6               	goto	l1088
  3250                           	
  3251  0379                     l1094:	
  3252                           	line	65
  3253  0379  2B86               	goto	l2782
  3254                           	
  3255  037A                     l1096:	
  3256                           	line	66
  3257                           	
  3258  037A                     l2780:	
  3259  037A  3001               	movlw	01h
  3260  037B  00AC               	movwf	(??___fttol+0)+0
  3261  037C                     u2895:
  3262  037C  1003               	clrc
  3263  037D  0DB1               	rlf	(___fttol@lval),f
  3264  037E  0DB2               	rlf	(___fttol@lval+1),f
  3265  037F  0DB3               	rlf	(___fttol@lval+2),f
  3266  0380  0DB4               	rlf	(___fttol@lval+3),f
  3267  0381  0BAC               	decfsz	(??___fttol+0)+0
  3268  0382  2B7C               	goto	u2895
  3269                           	line	67
  3270  0383  3001               	movlw	low(01h)
  3271  0384  02B5               	subwf	(___fttol@exp1),f
  3272  0385  2B86               	goto	l2782
  3273                           	line	68
  3274                           	
  3275  0386                     l1095:	
  3276                           	line	65
  3277                           	
  3278  0386                     l2782:	
  3279  0386  08B5               	movf	(___fttol@exp1),f
  3280  0387  1D03               	skipz
  3281  0388  2B8A               	goto	u2901
  3282  0389  2B8B               	goto	u2900
  3283  038A                     u2901:
  3284  038A  2B7A               	goto	l2780
  3285  038B                     u2900:
  3286  038B  2B8D               	goto	l2784
  3287                           	
  3288  038C                     l1097:	
  3289  038C  2B8D               	goto	l2784
  3290                           	line	69
  3291                           	
  3292  038D                     l1093:	
  3293                           	line	70
  3294                           	
  3295  038D                     l2784:	
  3296  038D  0830               	movf	(___fttol@sign1),w
  3297  038E  1D03               	skipz
  3298  038F  2B91               	goto	u2910
  3299  0390  2B9D               	goto	l2788
  3300  0391                     u2910:
  3301                           	line	71
  3302                           	
  3303  0391                     l2786:	
  3304  0391  09B1               	comf	(___fttol@lval),f
  3305  0392  09B2               	comf	(___fttol@lval+1),f
  3306  0393  09B3               	comf	(___fttol@lval+2),f
  3307  0394  09B4               	comf	(___fttol@lval+3),f
  3308  0395  0AB1               	incf	(___fttol@lval),f
  3309  0396  1903               	skipnz
  3310  0397  0AB2               	incf	(___fttol@lval+1),f
  3311  0398  1903               	skipnz
  3312  0399  0AB3               	incf	(___fttol@lval+2),f
  3313  039A  1903               	skipnz
  3314  039B  0AB4               	incf	(___fttol@lval+3),f
  3315  039C  2B9D               	goto	l2788
  3316                           	
  3317  039D                     l1098:	
  3318                           	line	72
  3319                           	
  3320  039D                     l2788:	
  3321  039D  0834               	movf	(___fttol@lval+3),w
  3322  039E  00AB               	movwf	(?___fttol+3)
  3323  039F  0833               	movf	(___fttol@lval+2),w
  3324  03A0  00AA               	movwf	(?___fttol+2)
  3325  03A1  0832               	movf	(___fttol@lval+1),w
  3326  03A2  00A9               	movwf	(?___fttol+1)
  3327  03A3  0831               	movf	(___fttol@lval),w
  3328  03A4  00A8               	movwf	(?___fttol)
  3329                           
  3330  03A5  2BA6               	goto	l1088
  3331                           	
  3332  03A6                     l2790:	
  3333                           	line	73
  3334                           	
  3335  03A6                     l1088:	
  3336  03A6  0008               	return
  3337                           	opt stack 0
  3338                           GLOBAL	__end_of___fttol
  3339  03A7                     	__end_of___fttol:
  3340 ;; =============== function ___fttol ends ============
  3341                           
  3342                           	signat	___fttol,4220
  3343                           	global	___ftpack
  3344                           psect	text439,local,class=CODE,delta=2
  3345                           global __ptext439
  3346  03A7                     __ptext439:
  3347                           
  3348 ;; *************** function ___ftpack *****************
  3349 ;; Defined at:
  3350 ;;		line 63 in file "C:\Program Files (x86)\HI-TECH Software\PICC\9.82\sources\float.c"
  3351 ;; Parameters:    Size  Location     Type
  3352 ;;  arg             3    0[BANK0 ] unsigned um
  3353 ;;  exp             1    3[BANK0 ] unsigned char 
  3354 ;;  sign            1    4[BANK0 ] unsigned char 
  3355 ;; Auto vars:     Size  Location     Type
  3356 ;;		None
  3357 ;; Return value:  Size  Location     Type
  3358 ;;                  3    0[BANK0 ] float 
  3359 ;; Registers used:
  3360 ;;		wreg, status,2, status,0
  3361 ;; Tracked objects:
  3362 ;;		On entry : 0/0
  3363 ;;		On exit  : 0/0
  3364 ;;		Unchanged: 0/0
  3365 ;; Data sizes:     COMMON   BANK0   BANK1   BANK2
  3366 ;;      Params:         0       5       0       0
  3367 ;;      Locals:         0       0       0       0
  3368 ;;      Temps:          0       3       0       0
  3369 ;;      Totals:         0       8       0       0
  3370 ;;Total ram usage:        8 bytes
  3371 ;; Hardware stack levels used:    1
  3372 ;; Hardware stack levels required when called:    3
  3373 ;; This function calls:
  3374 ;;		Nothing
  3375 ;; This function is called by:
  3376 ;;		___ftadd
  3377 ;;		___ftdiv
  3378 ;;		___ftmul
  3379 ;;		___lwtoft
  3380 ;;		___altoft
  3381 ;;		___lbtoft
  3382 ;;		___abtoft
  3383 ;;		___awtoft
  3384 ;;		___lltoft
  3385 ;;		___attoft
  3386 ;;		___lttoft
  3387 ;; This function uses a non-reentrant model
  3388 ;;
  3389                           psect	text439
  3390                           	file	"C:\Program Files (x86)\HI-TECH Software\PICC\9.82\sources\float.c"
  3391                           	line	63
  3392                           	global	__size_of___ftpack
  3393  007D                     	__size_of___ftpack	equ	__end_of___ftpack-___ftpack
  3394                           	
  3395  03A7                     ___ftpack:	
  3396                           	opt	stack 2
  3397                           ; Regs used in ___ftpack: [wreg+status,2+status,0]
  3398                           	line	64
  3399                           	
  3400  03A7                     l2712:	
  3401  03A7  1283               	bcf	status, 5	;RP0=0, select bank0
  3402  03A8  1303               	bcf	status, 6	;RP1=0, select bank0
  3403  03A9  0823               	movf	(___ftpack@exp),w
  3404  03AA  1D03               	skipz
  3405  03AB  2BAD               	goto	u2710
  3406  03AC  2BB5               	goto	l2716
  3407  03AD                     u2710:
  3408                           	
  3409  03AD                     l2714:	
  3410  03AD  0822               	movf	(___ftpack@arg+2),w
  3411  03AE  0421               	iorwf	(___ftpack@arg+1),w
  3412  03AF  0420               	iorwf	(___ftpack@arg),w
  3413  03B0  1D03               	skipz
  3414  03B1  2BB3               	goto	u2721
  3415  03B2  2BB4               	goto	u2720
  3416  03B3                     u2721:
  3417  03B3  2BCB               	goto	l2722
  3418  03B4                     u2720:
  3419  03B4  2BB5               	goto	l2716
  3420                           	
  3421  03B5                     l1314:	
  3422                           	line	65
  3423                           	
  3424  03B5                     l2716:	
  3425  03B5  3000               	movlw	0x0
  3426  03B6  00A0               	movwf	(?___ftpack)
  3427  03B7  3000               	movlw	0x0
  3428  03B8  00A1               	movwf	(?___ftpack+1)
  3429  03B9  3000               	movlw	0x0
  3430  03BA  00A2               	movwf	(?___ftpack+2)
  3431  03BB  2C23               	goto	l1315
  3432                           	
  3433  03BC                     l2718:	
  3434  03BC  2C23               	goto	l1315
  3435                           	
  3436  03BD                     l1312:	
  3437                           	line	66
  3438  03BD  2BCB               	goto	l2722
  3439                           	
  3440  03BE                     l1317:	
  3441                           	line	67
  3442                           	
  3443  03BE                     l2720:	
  3444  03BE  3001               	movlw	(01h)
  3445  03BF  00A5               	movwf	(??___ftpack+0)+0
  3446  03C0  0825               	movf	(??___ftpack+0)+0,w
  3447  03C1  07A3               	addwf	(___ftpack@exp),f
  3448                           	line	68
  3449  03C2  3001               	movlw	01h
  3450  03C3                     u2735:
  3451  03C3  1003               	clrc
  3452  03C4  0CA2               	rrf	(___ftpack@arg+2),f
  3453  03C5  0CA1               	rrf	(___ftpack@arg+1),f
  3454  03C6  0CA0               	rrf	(___ftpack@arg),f
  3455  03C7  3EFF               	addlw	-1
  3456  03C8  1D03               	skipz
  3457  03C9  2BC3               	goto	u2735
  3458                           
  3459  03CA  2BCB               	goto	l2722
  3460                           	line	69
  3461                           	
  3462  03CB                     l1316:	
  3463                           	line	66
  3464                           	
  3465  03CB                     l2722:	
  3466  03CB  30FE               	movlw	low highword(0FE0000h)
  3467  03CC  0522               	andwf	(___ftpack@arg+2),w
  3468  03CD  1D03               	btfss	status,2
  3469  03CE  2BD0               	goto	u2741
  3470  03CF  2BD1               	goto	u2740
  3471  03D0                     u2741:
  3472  03D0  2BBE               	goto	l2720
  3473  03D1                     u2740:
  3474  03D1  2BE9               	goto	l1319
  3475                           	
  3476  03D2                     l1318:	
  3477                           	line	70
  3478  03D2  2BE9               	goto	l1319
  3479                           	
  3480  03D3                     l1320:	
  3481                           	line	71
  3482                           	
  3483  03D3                     l2724:	
  3484  03D3  3001               	movlw	(01h)
  3485  03D4  00A5               	movwf	(??___ftpack+0)+0
  3486  03D5  0825               	movf	(??___ftpack+0)+0,w
  3487  03D6  07A3               	addwf	(___ftpack@exp),f
  3488                           	line	72
  3489                           	
  3490  03D7                     l2726:	
  3491  03D7  3001               	movlw	01h
  3492  03D8  07A0               	addwf	(___ftpack@arg),f
  3493  03D9  3000               	movlw	0
  3494  03DA  1803               	skipnc
  3495  03DB  3001               movlw 1
  3496  03DC  07A1               	addwf	(___ftpack@arg+1),f
  3497  03DD  3000               	movlw	0
  3498  03DE  1803               	skipnc
  3499  03DF  3001               movlw 1
  3500  03E0  07A2               	addwf	(___ftpack@arg+2),f
  3501                           	line	73
  3502                           	
  3503  03E1                     l2728:	
  3504  03E1  3001               	movlw	01h
  3505  03E2                     u2755:
  3506  03E2  1003               	clrc
  3507  03E3  0CA2               	rrf	(___ftpack@arg+2),f
  3508  03E4  0CA1               	rrf	(___ftpack@arg+1),f
  3509  03E5  0CA0               	rrf	(___ftpack@arg),f
  3510  03E6  3EFF               	addlw	-1
  3511  03E7  1D03               	skipz
  3512  03E8  2BE2               	goto	u2755
  3513                           
  3514                           	line	74
  3515                           	
  3516  03E9                     l1319:	
  3517                           	line	70
  3518  03E9  30FF               	movlw	low highword(0FF0000h)
  3519  03EA  0522               	andwf	(___ftpack@arg+2),w
  3520  03EB  1D03               	btfss	status,2
  3521  03EC  2BEE               	goto	u2761
  3522  03ED  2BEF               	goto	u2760
  3523  03EE                     u2761:
  3524  03EE  2BD3               	goto	l2724
  3525  03EF                     u2760:
  3526  03EF  2BFC               	goto	l2732
  3527                           	
  3528  03F0                     l1321:	
  3529                           	line	75
  3530  03F0  2BFC               	goto	l2732
  3531                           	
  3532  03F1                     l1323:	
  3533                           	line	76
  3534                           	
  3535  03F1                     l2730:	
  3536  03F1  3001               	movlw	low(01h)
  3537  03F2  02A3               	subwf	(___ftpack@exp),f
  3538                           	line	77
  3539  03F3  3001               	movlw	01h
  3540  03F4                     u2775:
  3541  03F4  1003               	clrc
  3542  03F5  0DA0               	rlf	(___ftpack@arg),f
  3543  03F6  0DA1               	rlf	(___ftpack@arg+1),f
  3544  03F7  0DA2               	rlf	(___ftpack@arg+2),f
  3545  03F8  3EFF               	addlw	-1
  3546  03F9  1D03               	skipz
  3547  03FA  2BF4               	goto	u2775
  3548  03FB  2BFC               	goto	l2732
  3549                           	line	78
  3550                           	
  3551  03FC                     l1322:	
  3552                           	line	75
  3553                           	
  3554  03FC                     l2732:	
  3555  03FC  1FA1               	btfss	(___ftpack@arg+1),(15)&7
  3556  03FD  2BFF               	goto	u2781
  3557  03FE  2C00               	goto	u2780
  3558  03FF                     u2781:
  3559  03FF  2BF1               	goto	l2730
  3560  0400                     u2780:
  3561                           	
  3562  0400                     l1324:	
  3563                           	line	79
  3564  0400  1823               	btfsc	(___ftpack@exp),(0)&7
  3565  0401  2C03               	goto	u2791
  3566  0402  2C04               	goto	u2790
  3567  0403                     u2791:
  3568  0403  2C0A               	goto	l1325
  3569  0404                     u2790:
  3570                           	line	80
  3571                           	
  3572  0404                     l2734:	
  3573  0404  30FF               	movlw	0FFh
  3574  0405  05A0               	andwf	(___ftpack@arg),f
  3575  0406  307F               	movlw	07Fh
  3576  0407  05A1               	andwf	(___ftpack@arg+1),f
  3577  0408  30FF               	movlw	0FFh
  3578  0409  05A2               	andwf	(___ftpack@arg+2),f
  3579                           	
  3580  040A                     l1325:	
  3581                           	line	81
  3582  040A  1003               	clrc
  3583  040B  0CA3               	rrf	(___ftpack@exp),f
  3584                           
  3585                           	line	82
  3586                           	
  3587  040C                     l2736:	
  3588  040C  0823               	movf	(___ftpack@exp),w
  3589  040D  00A5               	movwf	((??___ftpack+0)+0)
  3590  040E  01A6               	clrf	((??___ftpack+0)+0+1)
  3591  040F  01A7               	clrf	((??___ftpack+0)+0+2)
  3592  0410  3010               	movlw	010h
  3593  0411                     u2805:
  3594  0411  1003               	clrc
  3595  0412  0DA5               	rlf	(??___ftpack+0)+0,f
  3596  0413  0DA6               	rlf	(??___ftpack+0)+1,f
  3597  0414  0DA7               	rlf	(??___ftpack+0)+2,f
  3598  0415                     u2800:
  3599  0415  3EFF               	addlw	-1
  3600  0416  1D03               	skipz
  3601  0417  2C11               	goto	u2805
  3602  0418  0825               	movf	0+(??___ftpack+0)+0,w
  3603  0419  04A0               	iorwf	(___ftpack@arg),f
  3604  041A  0826               	movf	1+(??___ftpack+0)+0,w
  3605  041B  04A1               	iorwf	(___ftpack@arg+1),f
  3606  041C  0827               	movf	2+(??___ftpack+0)+0,w
  3607  041D  04A2               	iorwf	(___ftpack@arg+2),f
  3608                           	line	83
  3609                           	
  3610  041E                     l2738:	
  3611  041E  0824               	movf	(___ftpack@sign),w
  3612  041F  1D03               	skipz
  3613  0420  2C22               	goto	u2810
  3614  0421  2C23               	goto	l1326
  3615  0422                     u2810:
  3616                           	line	84
  3617                           	
  3618  0422                     l2740:	
  3619  0422  17A2               	bsf	(___ftpack@arg)+(23/8),(23)&7
  3620                           	
  3621  0423                     l1326:	
  3622                           	line	85
  3623                           	line	86
  3624                           	
  3625  0423                     l1315:	
  3626  0423  0008               	return
  3627                           	opt stack 0
  3628                           GLOBAL	__end_of___ftpack
  3629  0424                     	__end_of___ftpack:
  3630 ;; =============== function ___ftpack ends ============
  3631                           
  3632                           	signat	___ftpack,12411
  3633                           	global	_frexp
  3634                           psect	text440,local,class=CODE,delta=2
  3635                           global __ptext440
  3636  0576                     __ptext440:
  3637                           
  3638 ;; *************** function _frexp *****************
  3639 ;; Defined at:
  3640 ;;		line 255 in file "C:\Program Files (x86)\HI-TECH Software\PICC\9.82\sources\frexp.c"
  3641 ;; Parameters:    Size  Location     Type
  3642 ;;  value           3    0[BANK0 ] float 
  3643 ;;  eptr            1    3[BANK0 ] PTR int 
  3644 ;;		 -> trunc@expon(2), 
  3645 ;; Auto vars:     Size  Location     Type
  3646 ;;		None
  3647 ;; Return value:  Size  Location     Type
  3648 ;;                  3    0[BANK0 ] PTR int 
  3649 ;; Registers used:
  3650 ;;		wreg, fsr0l, fsr0h, status,2, status,0, btemp+1
  3651 ;; Tracked objects:
  3652 ;;		On entry : 0/0
  3653 ;;		On exit  : 0/0
  3654 ;;		Unchanged: 0/0
  3655 ;; Data sizes:     COMMON   BANK0   BANK1   BANK2
  3656 ;;      Params:         0       4       0       0
  3657 ;;      Locals:         0       0       0       0
  3658 ;;      Temps:          0       2       0       0
  3659 ;;      Totals:         0       6       0       0
  3660 ;;Total ram usage:        6 bytes
  3661 ;; Hardware stack levels used:    1
  3662 ;; Hardware stack levels required when called:    3
  3663 ;; This function calls:
  3664 ;;		Nothing
  3665 ;; This function is called by:
  3666 ;;		_trunc
  3667 ;; This function uses a non-reentrant model
  3668 ;;
  3669                           psect	text440
  3670                           	file	"C:\Program Files (x86)\HI-TECH Software\PICC\9.82\sources\frexp.c"
  3671                           	line	255
  3672                           	global	__size_of_frexp
  3673  0046                     	__size_of_frexp	equ	__end_of_frexp-_frexp
  3674                           	
  3675  0576                     _frexp:	
  3676                           	opt	stack 2
  3677                           ; Regs used in _frexp: [wreg-fsr0h+status,2+status,0+btemp+1]
  3678                           	line	256
  3679                           	
  3680  0576                     l2652:	
  3681  0576  1283               	bcf	status, 5	;RP0=0, select bank0
  3682  0577  1303               	bcf	status, 6	;RP1=0, select bank0
  3683  0578  0822               	movf	(frexp@value+2),w
  3684  0579  0421               	iorwf	(frexp@value+1),w
  3685  057A  0420               	iorwf	(frexp@value),w
  3686  057B  1D03               	skipz
  3687  057C  2D7E               	goto	u2631
  3688  057D  2D7F               	goto	u2630
  3689  057E                     u2631:
  3690  057E  2D89               	goto	l2658
  3691  057F                     u2630:
  3692                           	line	257
  3693                           	
  3694  057F                     l2654:	
  3695  057F  0823               	movf	(frexp@eptr),w
  3696  0580  0084               	movwf	fsr0
  3697  0581  3000               	movlw	low(0)
  3698  0582  1383               	bcf	status, 7	;select IRP bank0
  3699  0583  0080               	movwf	indf
  3700  0584  0A84               	incf	fsr0,f
  3701  0585  3000               	movlw	high(0)
  3702  0586  0080               	movwf	indf
  3703  0587  2DBB               	goto	l951
  3704                           	line	258
  3705                           	
  3706  0588                     l2656:	
  3707                           ;	Return value of _frexp is never used
  3708  0588  2DBB               	goto	l951
  3709                           	line	259
  3710                           	
  3711  0589                     l950:	
  3712                           	line	261
  3713                           	
  3714  0589                     l2658:	
  3715  0589  0822               	movf	0+(frexp@value)+02h,w
  3716  058A  397F               	andlw	(1<<7)-1
  3717  058B  00A4               	movwf	(??_frexp+0)+0
  3718  058C  01A5               	clrf	(??_frexp+0)+0+1
  3719  058D  3001               	movlw	01h
  3720  058E  00FF               	movwf	btemp+1
  3721  058F                     u2645:
  3722  058F  1003               	clrc
  3723  0590  0DA4               	rlf	(??_frexp+0)+0,f
  3724  0591  0DA5               	rlf	(??_frexp+0)+1,f
  3725  0592  0BFF               	decfsz	btemp+1,f
  3726  0593  2D8F               	goto	u2645
  3727  0594  0823               	movf	(frexp@eptr),w
  3728  0595  0084               	movwf	fsr0
  3729  0596  0824               	movf	0+(??_frexp+0)+0,w
  3730  0597  1383               	bcf	status, 7	;select IRP bank0
  3731  0598  0080               	movwf	indf
  3732  0599  0A84               	incf	fsr0,f
  3733  059A  0825               	movf	1+(??_frexp+0)+0,w
  3734  059B  0080               	movwf	indf
  3735                           	line	262
  3736                           	
  3737  059C                     l2660:	
  3738  059C  0D21               	rlf	0+(frexp@value)+01h,w
  3739  059D  0D21               	rlf	0+(frexp@value)+01h,w
  3740  059E  3901               	andlw	1
  3741  059F  00A4               	movwf	(??_frexp+0)+0
  3742  05A0  01A5               	clrf	(??_frexp+0)+0+1
  3743  05A1  0823               	movf	(frexp@eptr),w
  3744  05A2  0084               	movwf	fsr0
  3745  05A3  0824               	movf	0+(??_frexp+0)+0,w
  3746  05A4  0480               	iorwf	indf,f
  3747  05A5  0A84               	incf	fsr0,f
  3748  05A6  0825               	movf	1+(??_frexp+0)+0,w
  3749  05A7  0480               	iorwf	indf,f
  3750                           	line	263
  3751                           	
  3752  05A8                     l2662:	
  3753  05A8  0823               	movf	(frexp@eptr),w
  3754  05A9  0084               	movwf	fsr0
  3755  05AA  3082               	movlw	low(-126)
  3756  05AB  0780               	addwf	indf,f
  3757  05AC  0F84               	incfsz	fsr0,f
  3758  05AD  0800               	movf	indf,w
  3759  05AE  1803               	skipnc
  3760  05AF  0A00               	incf	indf,w
  3761  05B0  00FF               	movwf	btemp+1
  3762  05B1  30FF               	movlw	high(-126)
  3763  05B2  077F               	addwf	btemp+1,w
  3764  05B3  0080               	movwf	indf
  3765  05B4  0384               	decf	fsr0,f
  3766                           	line	268
  3767                           	
  3768  05B5                     l2664:	
  3769  05B5  0822               	movf	0+(frexp@value)+02h,w
  3770  05B6  3980               	andlw	not (((1<<7)-1)<<0)
  3771  05B7  383F               	iorlw	(03Fh & ((1<<7)-1))<<0
  3772  05B8  00A2               	movwf	0+(frexp@value)+02h
  3773                           	line	269
  3774                           	
  3775  05B9                     l2666:	
  3776  05B9  13A1               	bcf	0+(frexp@value)+01h,7
  3777  05BA  2DBB               	goto	l951
  3778                           	line	273
  3779                           	
  3780  05BB                     l2668:	
  3781                           	line	274
  3782                           ;	Return value of _frexp is never used
  3783                           	
  3784  05BB                     l951:	
  3785  05BB  0008               	return
  3786                           	opt stack 0
  3787                           GLOBAL	__end_of_frexp
  3788  05BC                     	__end_of_frexp:
  3789 ;; =============== function _frexp ends ============
  3790                           
  3791                           	signat	_frexp,8315
  3792                           	global	_update_duty
  3793                           psect	text441,local,class=CODE,delta=2
  3794                           global __ptext441
  3795  05F9                     __ptext441:
  3796                           
  3797 ;; *************** function _update_duty *****************
  3798 ;; Defined at:
  3799 ;;		line 28 in file "main.c"
  3800 ;; Parameters:    Size  Location     Type
  3801 ;;  value           2    0[BANK0 ] unsigned int 
  3802 ;; Auto vars:     Size  Location     Type
  3803 ;;		None
  3804 ;; Return value:  Size  Location     Type
  3805 ;;		None               void
  3806 ;; Registers used:
  3807 ;;		wreg, status,2, status,0
  3808 ;; Tracked objects:
  3809 ;;		On entry : 0/0
  3810 ;;		On exit  : 0/0
  3811 ;;		Unchanged: 0/0
  3812 ;; Data sizes:     COMMON   BANK0   BANK1   BANK2
  3813 ;;      Params:         0       2       0       0
  3814 ;;      Locals:         0       0       0       0
  3815 ;;      Temps:          0       0       0       0
  3816 ;;      Totals:         0       2       0       0
  3817 ;;Total ram usage:        2 bytes
  3818 ;; Hardware stack levels used:    1
  3819 ;; Hardware stack levels required when called:    3
  3820 ;; This function calls:
  3821 ;;		Nothing
  3822 ;; This function is called by:
  3823 ;;		_main
  3824 ;; This function uses a non-reentrant model
  3825 ;;
  3826                           psect	text441
  3827                           	file	"main.c"
  3828                           	line	28
  3829                           	global	__size_of_update_duty
  3830  0027                     	__size_of_update_duty	equ	__end_of_update_duty-_update_duty
  3831                           	
  3832  05F9                     _update_duty:	
  3833                           	opt	stack 4
  3834                           ; Regs used in _update_duty: [wreg+status,2+status,0]
  3835                           	line	31
  3836                           	
  3837  05F9                     l2628:	
  3838                           ;main.c: 31: CCP1Y = value;
  3839  05F9  1283               	bcf	status, 5	;RP0=0, select bank0
  3840  05FA  1303               	bcf	status, 6	;RP1=0, select bank0
  3841  05FB  1820               	btfsc	(update_duty@value),0
  3842  05FC  2DFE               	goto	u2541
  3843  05FD  2E02               	goto	u2540
  3844                           	
  3845  05FE                     u2541:
  3846  05FE  1283               	bcf	status, 5	;RP0=0, select bank0
  3847  05FF  1303               	bcf	status, 6	;RP1=0, select bank0
  3848  0600  1617               	bsf	(188/8),(188)&7
  3849  0601  2E05               	goto	u2554
  3850  0602                     u2540:
  3851  0602  1283               	bcf	status, 5	;RP0=0, select bank0
  3852  0603  1303               	bcf	status, 6	;RP1=0, select bank0
  3853  0604  1217               	bcf	(188/8),(188)&7
  3854  0605                     u2554:
  3855                           	line	34
  3856                           	
  3857  0605                     l2630:	
  3858                           ;main.c: 34: value >>= 1;
  3859  0605  3001               	movlw	01h
  3860                           	
  3861  0606                     u2565:
  3862  0606  1003               	clrc
  3863  0607  0CA1               	rrf	(update_duty@value+1),f
  3864  0608  0CA0               	rrf	(update_duty@value),f
  3865  0609  3EFF               	addlw	-1
  3866  060A  1D03               	skipz
  3867  060B  2E06               	goto	u2565
  3868                           	line	35
  3869                           	
  3870  060C                     l2632:	
  3871                           ;main.c: 35: CCP1X = value;
  3872  060C  1820               	btfsc	(update_duty@value),0
  3873  060D  2E0F               	goto	u2571
  3874  060E  2E13               	goto	u2570
  3875                           	
  3876  060F                     u2571:
  3877  060F  1283               	bcf	status, 5	;RP0=0, select bank0
  3878  0610  1303               	bcf	status, 6	;RP1=0, select bank0
  3879  0611  1697               	bsf	(189/8),(189)&7
  3880  0612  2E16               	goto	u2584
  3881  0613                     u2570:
  3882  0613  1283               	bcf	status, 5	;RP0=0, select bank0
  3883  0614  1303               	bcf	status, 6	;RP1=0, select bank0
  3884  0615  1297               	bcf	(189/8),(189)&7
  3885  0616                     u2584:
  3886                           	line	38
  3887                           ;main.c: 38: value >>= 1;
  3888  0616  3001               	movlw	01h
  3889                           	
  3890  0617                     u2595:
  3891  0617  1003               	clrc
  3892  0618  0CA1               	rrf	(update_duty@value+1),f
  3893  0619  0CA0               	rrf	(update_duty@value),f
  3894  061A  3EFF               	addlw	-1
  3895  061B  1D03               	skipz
  3896  061C  2E17               	goto	u2595
  3897                           	line	39
  3898                           	
  3899  061D                     l2634:	
  3900                           ;main.c: 39: CCPR1L = value;
  3901  061D  0820               	movf	(update_duty@value),w
  3902  061E  0095               	movwf	(21)	;volatile
  3903                           	line	41
  3904                           	
  3905  061F                     l461:	
  3906  061F  0008               	return
  3907                           	opt stack 0
  3908                           GLOBAL	__end_of_update_duty
  3909  0620                     	__end_of_update_duty:
  3910 ;; =============== function _update_duty ends ============
  3911                           
  3912                           	signat	_update_duty,4216
  3913                           	global	_isr
  3914                           psect	text442,local,class=CODE,delta=2
  3915                           global __ptext442
  3916  0674                     __ptext442:
  3917                           
  3918 ;; *************** function _isr *****************
  3919 ;; Defined at:
  3920 ;;		line 116 in file "main.c"
  3921 ;; Parameters:    Size  Location     Type
  3922 ;;		None
  3923 ;; Auto vars:     Size  Location     Type
  3924 ;;		None
  3925 ;; Return value:  Size  Location     Type
  3926 ;;		None               void
  3927 ;; Registers used:
  3928 ;;		wreg, status,2, status,0, pclath, cstack
  3929 ;; Tracked objects:
  3930 ;;		On entry : 0/0
  3931 ;;		On exit  : 0/0
  3932 ;;		Unchanged: 0/0
  3933 ;; Data sizes:     COMMON   BANK0   BANK1   BANK2
  3934 ;;      Params:         0       0       0       0
  3935 ;;      Locals:         0       0       0       0
  3936 ;;      Temps:          4       0       0       0
  3937 ;;      Totals:         4       0       0       0
  3938 ;;Total ram usage:        4 bytes
  3939 ;; Hardware stack levels used:    1
  3940 ;; Hardware stack levels required when called:    2
  3941 ;; This function calls:
  3942 ;;		_advance_wave
  3943 ;; This function is called by:
  3944 ;;		Interrupt level 1
  3945 ;; This function uses a non-reentrant model
  3946 ;;
  3947                           psect	text442
  3948                           	file	"main.c"
  3949                           	line	116
  3950                           	global	__size_of_isr
  3951  0014                     	__size_of_isr	equ	__end_of_isr-_isr
  3952                           	
  3953  0674                     _isr:	
  3954                           	opt	stack 1
  3955                           ; Regs used in _isr: [wreg+status,2+status,0+pclath+cstack]
  3956                           psect	intentry,class=CODE,delta=2
  3957                           global __pintentry
  3958  0004                     __pintentry:
  3959                           global interrupt_function
  3960  0004                     interrupt_function:
  3961                           	global saved_w
  3962  007E                     	saved_w	set	btemp+0
  3963  0004  00FE               	movwf	saved_w
  3964  0005  0E03               	swapf	status,w
  3965  0006  00F4               	movwf	(??_isr+0)
  3966  0007  0804               	movf	fsr0,w
  3967  0008  00F5               	movwf	(??_isr+1)
  3968  0009  080A               	movf	pclath,w
  3969  000A  00F6               	movwf	(??_isr+2)
  3970  000B  1283               	bcf	status, 5	;RP0=0, select bank0
  3971  000C  1303               	bcf	status, 6	;RP1=0, select bank0
  3972  000D  087F               	movf	btemp+1,w
  3973  000E  00F7               	movwf	(??_isr+3)
  3974  000F  2E74               	ljmp	_isr
  3975                           psect	text442
  3976                           	line	117
  3977                           	
  3978  0674                     i1l2646:	
  3979                           ;main.c: 117: if (TMR0IF)
  3980  0674  1D0B               	btfss	(90/8),(90)&7
  3981  0675  2E77               	goto	u262_21
  3982  0676  2E78               	goto	u262_20
  3983  0677                     u262_21:
  3984  0677  2E7B               	goto	i1l477
  3985  0678                     u262_20:
  3986                           	line	119
  3987                           	
  3988  0678                     i1l2648:	
  3989                           ;main.c: 118: {
  3990                           ;main.c: 119: TMR0IF = 0;
  3991  0678  110B               	bcf	(90/8),(90)&7
  3992                           	line	125
  3993                           	
  3994  0679                     i1l2650:	
  3995                           ;main.c: 125: advance_wave();
  3996  0679  25BC               	fcall	_advance_wave
  3997  067A  2E7B               	goto	i1l477
  3998                           	line	126
  3999                           	
  4000  067B                     i1l476:	
  4001                           	line	127
  4002                           	
  4003  067B                     i1l477:	
  4004  067B  0877               	movf	(??_isr+3),w
  4005  067C  1283               	bcf	status, 5	;RP0=0, select bank0
  4006  067D  1303               	bcf	status, 6	;RP1=0, select bank0
  4007  067E  00FF               	movwf	btemp+1
  4008  067F  0876               	movf	(??_isr+2),w
  4009  0680  008A               	movwf	pclath
  4010  0681  0875               	movf	(??_isr+1),w
  4011  0682  0084               	movwf	fsr0
  4012  0683  0E74               	swapf	(??_isr+0)^0FFFFFF80h,w
  4013  0684  0083               	movwf	status
  4014  0685  0EFE               	swapf	saved_w,f
  4015  0686  0E7E               	swapf	saved_w,w
  4016  0687  0009               	retfie
  4017                           	opt stack 0
  4018                           GLOBAL	__end_of_isr
  4019  0688                     	__end_of_isr:
  4020 ;; =============== function _isr ends ============
  4021                           
  4022                           	signat	_isr,88
  4023                           	global	_advance_wave
  4024                           psect	text443,local,class=CODE,delta=2
  4025                           global __ptext443
  4026  05BC                     __ptext443:
  4027                           
  4028 ;; *************** function _advance_wave *****************
  4029 ;; Defined at:
  4030 ;;		line 98 in file "main.c"
  4031 ;; Parameters:    Size  Location     Type
  4032 ;;		None
  4033 ;; Auto vars:     Size  Location     Type
  4034 ;;		None
  4035 ;; Return value:  Size  Location     Type
  4036 ;;		None               void
  4037 ;; Registers used:
  4038 ;;		wreg, status,2, status,0, pclath, cstack
  4039 ;; Tracked objects:
  4040 ;;		On entry : 0/0
  4041 ;;		On exit  : 0/0
  4042 ;;		Unchanged: 0/0
  4043 ;; Data sizes:     COMMON   BANK0   BANK1   BANK2
  4044 ;;      Params:         0       0       0       0
  4045 ;;      Locals:         0       0       0       0
  4046 ;;      Temps:          2       0       0       0
  4047 ;;      Totals:         2       0       0       0
  4048 ;;Total ram usage:        2 bytes
  4049 ;; Hardware stack levels used:    1
  4050 ;; Hardware stack levels required when called:    1
  4051 ;; This function calls:
  4052 ;;		i1_update_duty
  4053 ;; This function is called by:
  4054 ;;		_isr
  4055 ;; This function uses a non-reentrant model
  4056 ;;
  4057                           psect	text443
  4058                           	file	"main.c"
  4059                           	line	98
  4060                           	global	__size_of_advance_wave
  4061  003D                     	__size_of_advance_wave	equ	__end_of_advance_wave-_advance_wave
  4062                           	
  4063  05BC                     _advance_wave:	
  4064                           	opt	stack 1
  4065                           ; Regs used in _advance_wave: [wreg+status,2+status,0+pclath+cstack]
  4066                           	line	109
  4067                           	
  4068  05BC                     i1l2640:	
  4069                           ;main.c: 109: update_duty(duty >> 4);
  4070  05BC  1283               	bcf	status, 5	;RP0=0, select bank0
  4071  05BD  1303               	bcf	status, 6	;RP1=0, select bank0
  4072  05BE  0866               	movf	(_duty+1),w
  4073  05BF  00F3               	movwf	(??_advance_wave+0)+0+1
  4074  05C0  0865               	movf	(_duty),w
  4075  05C1  00F2               	movwf	(??_advance_wave+0)+0
  4076  05C2  3004               	movlw	04h
  4077  05C3                     u260_25:
  4078  05C3  1003               	clrc
  4079  05C4  0CF3               	rrf	(??_advance_wave+0)+1,f
  4080  05C5  0CF2               	rrf	(??_advance_wave+0)+0,f
  4081  05C6  3EFF               	addlw	-1
  4082  05C7  1D03               	skipz
  4083  05C8  2DC3               	goto	u260_25
  4084  05C9  0872               	movf	0+(??_advance_wave+0)+0,w
  4085  05CA  00F0               	movwf	(?i1_update_duty)
  4086  05CB  0873               	movf	1+(??_advance_wave+0)+0,w
  4087  05CC  00F1               	movwf	(?i1_update_duty+1)
  4088  05CD  2620               	fcall	i1_update_duty
  4089                           	line	112
  4090                           	
  4091  05CE                     i1l2642:	
  4092                           ;main.c: 112: if (duty < delta) duty = duty_max2-duty;
  4093  05CE  0879               	movf	(_delta+1),w
  4094  05CF  1283               	bcf	status, 5	;RP0=0, select bank0
  4095  05D0  1303               	bcf	status, 6	;RP1=0, select bank0
  4096  05D1  0266               	subwf	(_duty+1),w
  4097  05D2  1D03               	skipz
  4098  05D3  2DD6               	goto	u261_25
  4099  05D4  0878               	movf	(_delta),w
  4100  05D5  0265               	subwf	(_duty),w
  4101  05D6                     u261_25:
  4102  05D6  1803               	skipnc
  4103  05D7  2DD9               	goto	u261_21
  4104  05D8  2DDA               	goto	u261_20
  4105  05D9                     u261_21:
  4106  05D9  2DE9               	goto	i1l472
  4107  05DA                     u261_20:
  4108                           	
  4109  05DA                     i1l2644:	
  4110  05DA  0965               	comf	(_duty),w
  4111  05DB  00F2               	movwf	(??_advance_wave+0)+0
  4112  05DC  0966               	comf	(_duty+1),w
  4113  05DD  00F3               	movwf	((??_advance_wave+0)+0+1)
  4114  05DE  0AF2               	incf	(??_advance_wave+0)+0,f
  4115  05DF  1903               	skipnz
  4116  05E0  0AF3               	incf	((??_advance_wave+0)+0+1),f
  4117  05E1  0863               	movf	(_duty_max2),w
  4118  05E2  0772               	addwf	0+(??_advance_wave+0)+0,w
  4119  05E3  00E5               	movwf	(_duty)
  4120  05E4  0864               	movf	(_duty_max2+1),w
  4121  05E5  1803               	skipnc
  4122  05E6  0A64               	incf	(_duty_max2+1),w
  4123  05E7  0773               	addwf	1+(??_advance_wave+0)+0,w
  4124  05E8  00E6               	movwf	1+(_duty)
  4125                           	
  4126  05E9                     i1l472:	
  4127                           	line	113
  4128                           ;main.c: 113: duty = duty - delta;
  4129  05E9  0978               	comf	(_delta),w
  4130  05EA  00F2               	movwf	(??_advance_wave+0)+0
  4131  05EB  0979               	comf	(_delta+1),w
  4132  05EC  00F3               	movwf	((??_advance_wave+0)+0+1)
  4133  05ED  0AF2               	incf	(??_advance_wave+0)+0,f
  4134  05EE  1903               	skipnz
  4135  05EF  0AF3               	incf	((??_advance_wave+0)+0+1),f
  4136  05F0  0865               	movf	(_duty),w
  4137  05F1  0772               	addwf	0+(??_advance_wave+0)+0,w
  4138  05F2  00E5               	movwf	(_duty)
  4139  05F3  0866               	movf	(_duty+1),w
  4140  05F4  1803               	skipnc
  4141  05F5  0A66               	incf	(_duty+1),w
  4142  05F6  0773               	addwf	1+(??_advance_wave+0)+0,w
  4143  05F7  00E6               	movwf	1+(_duty)
  4144                           	line	114
  4145                           	
  4146  05F8                     i1l473:	
  4147  05F8  0008               	return
  4148                           	opt stack 0
  4149                           GLOBAL	__end_of_advance_wave
  4150  05F9                     	__end_of_advance_wave:
  4151 ;; =============== function _advance_wave ends ============
  4152                           
  4153                           	signat	_advance_wave,88
  4154                           	global	i1_update_duty
  4155                           psect	text444,local,class=CODE,delta=2
  4156                           global __ptext444
  4157  0620                     __ptext444:
  4158                           
  4159 ;; *************** function i1_update_duty *****************
  4160 ;; Defined at:
  4161 ;;		line 28 in file "main.c"
  4162 ;; Parameters:    Size  Location     Type
  4163 ;;  update_duty     2    0[COMMON] unsigned int 
  4164 ;; Auto vars:     Size  Location     Type
  4165 ;;		None
  4166 ;; Return value:  Size  Location     Type
  4167 ;;		None               void
  4168 ;; Registers used:
  4169 ;;		wreg, status,2, status,0
  4170 ;; Tracked objects:
  4171 ;;		On entry : 0/0
  4172 ;;		On exit  : 0/0
  4173 ;;		Unchanged: 0/0
  4174 ;; Data sizes:     COMMON   BANK0   BANK1   BANK2
  4175 ;;      Params:         2       0       0       0
  4176 ;;      Locals:         0       0       0       0
  4177 ;;      Temps:          0       0       0       0
  4178 ;;      Totals:         2       0       0       0
  4179 ;;Total ram usage:        2 bytes
  4180 ;; Hardware stack levels used:    1
  4181 ;; This function calls:
  4182 ;;		Nothing
  4183 ;; This function is called by:
  4184 ;;		_advance_wave
  4185 ;; This function uses a non-reentrant model
  4186 ;;
  4187                           psect	text444
  4188                           	file	"main.c"
  4189                           	line	28
  4190                           	global	__size_ofi1_update_duty
  4191  0025                     	__size_ofi1_update_duty	equ	__end_ofi1_update_duty-i1_update_duty
  4192                           	
  4193  0620                     i1_update_duty:	
  4194                           	opt	stack 1
  4195                           ; Regs used in i1_update_duty: [wreg+status,2+status,0]
  4196                           	line	31
  4197                           	
  4198  0620                     i1l2844:	
  4199                           ;main.c: 31: CCP1Y = value;
  4200  0620  1870               	btfsc	(i1update_duty@value),0
  4201  0621  2E23               	goto	u298_21
  4202  0622  2E27               	goto	u298_20
  4203                           	
  4204  0623                     u298_21:
  4205  0623  1283               	bcf	status, 5	;RP0=0, select bank0
  4206  0624  1303               	bcf	status, 6	;RP1=0, select bank0
  4207  0625  1617               	bsf	(188/8),(188)&7
  4208  0626  2E2A               	goto	u299_24
  4209  0627                     u298_20:
  4210  0627  1283               	bcf	status, 5	;RP0=0, select bank0
  4211  0628  1303               	bcf	status, 6	;RP1=0, select bank0
  4212  0629  1217               	bcf	(188/8),(188)&7
  4213  062A                     u299_24:
  4214                           	line	34
  4215                           	
  4216  062A                     i1l2846:	
  4217                           ;main.c: 34: value >>= 1;
  4218  062A  3001               	movlw	01h
  4219                           	
  4220  062B                     u300_25:
  4221  062B  1003               	clrc
  4222  062C  0CF1               	rrf	(i1update_duty@value+1),f
  4223  062D  0CF0               	rrf	(i1update_duty@value),f
  4224  062E  3EFF               	addlw	-1
  4225  062F  1D03               	skipz
  4226  0630  2E2B               	goto	u300_25
  4227                           	line	35
  4228                           	
  4229  0631                     i1l2848:	
  4230                           ;main.c: 35: CCP1X = value;
  4231  0631  1870               	btfsc	(i1update_duty@value),0
  4232  0632  2E34               	goto	u301_21
  4233  0633  2E38               	goto	u301_20
  4234                           	
  4235  0634                     u301_21:
  4236  0634  1283               	bcf	status, 5	;RP0=0, select bank0
  4237  0635  1303               	bcf	status, 6	;RP1=0, select bank0
  4238  0636  1697               	bsf	(189/8),(189)&7
  4239  0637  2E3B               	goto	u302_24
  4240  0638                     u301_20:
  4241  0638  1283               	bcf	status, 5	;RP0=0, select bank0
  4242  0639  1303               	bcf	status, 6	;RP1=0, select bank0
  4243  063A  1297               	bcf	(189/8),(189)&7
  4244  063B                     u302_24:
  4245                           	line	38
  4246                           ;main.c: 38: value >>= 1;
  4247  063B  3001               	movlw	01h
  4248                           	
  4249  063C                     u303_25:
  4250  063C  1003               	clrc
  4251  063D  0CF1               	rrf	(i1update_duty@value+1),f
  4252  063E  0CF0               	rrf	(i1update_duty@value),f
  4253  063F  3EFF               	addlw	-1
  4254  0640  1D03               	skipz
  4255  0641  2E3C               	goto	u303_25
  4256                           	line	39
  4257                           	
  4258  0642                     i1l2850:	
  4259                           ;main.c: 39: CCPR1L = value;
  4260  0642  0870               	movf	(i1update_duty@value),w
  4261  0643  0095               	movwf	(21)	;volatile
  4262                           	line	41
  4263                           	
  4264  0644                     i1l461:	
  4265  0644  0008               	return
  4266                           	opt stack 0
  4267                           GLOBAL	__end_ofi1_update_duty
  4268  0645                     	__end_ofi1_update_duty:
  4269 ;; =============== function i1_update_duty ends ============
  4270                           
  4271                           	signat	i1_update_duty,88
  4272                           psect	text445,local,class=CODE,delta=2
  4273                           global __ptext445
  4274  0000                     __ptext445:
  4275                           	global	btemp
  4276  007E                     	btemp set 07Eh
  4277                           
  4278                           	DABS	1,126,2	;btemp
  4279                           	global	wtemp0
  4280  007E                     	wtemp0 set btemp


HI-TECH Software PICC Macro Assembler V9.82 build 9453 
Symbol Table                                                                                   Thu Nov 28 23:33:33 2013

           _update_duty 05F9            ___altoft@exp 003F           ___altoft@sign 0040                      _RD 0C60  
                    _WR 0C61            ___ftadd@exp1 004D            ___ftadd@exp2 004C            ___ftadd@sign 004B  
                   l461 061F                     l464 0495                     l465 0496                     l466 0496  
                   l950 0589                     l951 05BB                     l943 054A                     l944 0575  
                   l945 0554                     l938 04E5                     _GIE 005F                     _PR2 0092  
                   _isr 0674                     fsr0 0004                     indf 0000    __end_of_advance_wave 05F9  
          ___ftdiv@cntr 0040            ___ftdiv@sign 0045                    l1030 006B                    l1022 0048  
                  l1031 00B0                    l1040 00E7                    l1032 0080                    l1024 0040  
                  l1041 00B7                    l1025 0152                    l1201 0673                    l1050 013A  
                  l1034 0099                    l1026 005D                    l1210 052E                    l1043 00D0  
                  l1035 009A                    l1044 00D1                    l1036 00A8                    l1028 005C  
                  l1141 0694                    l1045 00DF                    l1037 009B                    l1029 0066  
                  l1142 0695                    l1046 00D2                    l1038 00AF                    l1070 02D9  
                  l1206 0500                    l1047 00E6                    l1039 00E7                    l1071 02E8  
                  l1207 050F                    l1320 03D3                    l1312 03BD                    l1048 00FC  
                  l3000 01F8                    l1080 01DC                    l1208 0501                    l1321 03F0  
                  l1049 0111                    l1081 01F3                    l1209 0516                    l1322 03FC  
                  l1314 03B5                    l1090 0355                    l1066 0258                    l3010 0224  
                  l3002 01FC                    l1082 01F8                    l1323 03F1                    l1315 0423  
                  l1091 0356                    l1067 0300                    l1083 020D                    l1324 0400  
                  l1316 03CB                    l1092 0368                    l1068 0271                    l3012 023C  
                  l1084 0224                    l3004 020D                    l1076 016E                    l3020 04E9  
                  l1325 040A                    l1317 03BE                    l1093 038D                    l1069 02B7  
                  l1077 023C                    l1326 0423                    l1318 03D2                    l1094 0379  
                  l3006 0215                    l1078 0187                    l3014 065D                    l3030 050F  
                  l3022 04ED                    l1319 03E9                    l1095 0386                    l1087 031E  
                  l1079 01C7                    l1096 037A                    l1088 03A6                    l3008 021D  
                  l3016 0673                    l3032 0516                    l3024 04F1                    l3040 0542  
                  l1097 038C                    l1089 0369                    l1098 039D                    l3034 052E  
                  l3026 04FC                    l3018 04E6                    l3050 056E                    l3042 0549  
                  l3028 0501                    l3052 0575                    l3044 054A                    l3036 052F  
                  l3060 04E5                    l3046 0553                    l3038 053C                    l3054 0497  
                  l3070 0471                    l3062 0424                    l3048 0554                    l3056 04C0  
                  l3080 047D                    l3072 0472                    l3064 042C                    l3058 04D5  
                  l3090 048E                    l3082 0486                    l3074 0474                    l3066 046D  
                  l3092 048F                    l3084 0489                    l3076 0475                    l3068 0470  
                  l2630 0605                    l3094 0490                    l3086 048C                    l3078 0479  
                  l2632 060C                    l2720 03BE                    l2712 03A7                    l3096 0493  
                  l3088 048D                    l2634 061D                    l2730 03F1                    l2722 03CB  
                  l2714 03AD                    l3098 0494                    l2628 05F9                    l2660 059C  
                  l2652 0576                    l2740 0422                    l2732 03FC                    l2724 03D3  
                  l2716 03B5                    l2812 0688                    l2900 00D2                    l2662 05A8  
                  l2654 057F                    l2734 0404                    l2726 03D7                    l2718 03BC  
                  l2750 0314                    l2814 0691                    l2910 0111                    l2902 00DF  
                  l2664 05B5                    l2656 0588                    l2736 040C                    l2728 03E1  
                  l2760 0337                    l2752 031D                    l2816 0694                    l2920 0152  
                  l2912 0122                    l2904 00EB                    l2666 05B9                    l2658 0589  
                  l2738 041E                    l2770 0354                    l2762 033E                    l2754 031E  
                  l2818 0695                    l2914 0126                    l2906 00FC                    l2930 0269  
                  l2922 023D                    l2668 05BB                    l2780 037A                    l2772 0356  
                  l2764 0340                    l2756 0330                    l2748 0301                    l2916 0136  
                  l2908 0100                    l2860 0040                    l2852 0011                    l2940 028E  
                  l2932 0270                    l2924 0250                    l2790 03A6                    l2782 0386  
                  l2766 0344                    l2774 0369                    l2758 0331                    l2918 013A  
                  l2870 005D                    l2862 0047                    l2854 002B                    l2950 02BF  
                  l2942 02A0                    l2934 0271                    l2926 0257                    l2776 036F  
                  l2784 038D                    l2768 034B                    l2880 0072                    l2872 0061  
                  l2864 0048                    l2856 002F                    l2960 02E8                    l2952 02CD  
                  l2944 02A4                    l2936 0277                    l2928 0258                    l2786 0391  
                  l2778 0378                    l2890 00A8                    l2882 0080                    l2874 0065  
                  l2866 004C                    l2858 0035                    l2962 0300                    l2954 02D7  
                  l2946 02AB                    l2938 027C                    l2970 016E                    l2788 039D  
                  l2884 008A                    l2892 00B0                    l2876 006A                    l2868 0052  
                  l2956 02D9                    l2948 02B7                    l2980 01B5                    l2972 017F  
                  l2964 0153                    l2894 00B7                    l2886 0090                    l2878 006C  
                  l2958 02E1                    l2990 01CB                    l2982 01B6                    l2974 0186  
                  l2966 0166                    l2896 00C1                    l2888 009B                    l2992 01DC  
                  l2984 01BC                    l2976 0187                    l2968 016D                    l2898 00C7  
                  l2994 01E4                    l2986 01C2                    l2978 01B4                    l2996 01EC  
                  l2988 01C7                    l2998 01F3                    ?_isr 0070                    _T0CS 040D  
                  u3100 0065                    u3101 0064                    u3110 006A                    u3111 0069  
                  u3200 00C7                    u3120 007F                    u3040 002F                    u3201 00C6  
                  u3121 007E                    u3210 00CF                    u3050 0035                    u3211 00CE  
                  u3051 0034                    u3140 0090                    u3060 003F                    u3300 0287  
                  u3141 008F                    u3061 003E                    u3230 00E5                    u3150 0098  
                  u3070 004C                    u3310 0299                    u3231 00E4                    u3151 0097  
                  u3135 0081                    u3240 00EB                    u3080 0052                    u3400 01CB  
                  u3241 00EA                    u3225 00D3                    u3081 0051                    u3305 0283  
                  u3401 01CA                    u3250 0100                    u3170 00AE                    u3090 005C  
                  u3330 02CD                    u3251 00FF                    u3171 00AD                    u3091 005B  
                  u3331 02CC                    u3315 0295                    u3411 01D4                    u2540 0602  
                  u3180 00B6                    u3412 01DB                    u3500 04F1                    u2541 05FE  
                  u3261 011B                    u3181 00B5                    u3165 009C                    u3325 02B8  
                  u3501 04F0                    u2630 057F                    u2710 03AD                    u3270 0126  
                  u3262 0122                    u3350 02E7                    u2631 057E                    u3271 0125  
                  u3351 02E6                    u3335 02C9                    u2800 0415                    u2720 03B4  
                  u3280 0250                    u3440 01F2                    u3360 0166                    u3520 0515  
                  u2721 03B3                    u3345 02DA                    u3281 024F                    u3441 01F1  
                  u3425 01DD                    u3361 0165                    u3521 0514                    u2570 0613  
                  u2554 0605                    u2810 0422                    u3290 0269                    u3450 01FC  
                  u3370 017F                    u3530 0542                    u2571 060F                    u3195 00B8  
                  u3291 0268                    u3451 01FB                    u3435 01E5                    u3371 017E  
                  u3515 0502                    u3531 0541                    u2740 03D1                    u2900 038B  
                  u2820 0314                    u3380 0197                    u3540 0553                    u2565 0606  
                  u2645 058F                    u2805 0411                    u2741 03D0                    u2901 038A  
                  u2821 0313                    u3461 0205                    u3541 0552                    u2910 0391  
                  u2830 0329                    u3462 020C                    u3390 01A9                    u2735 03C3  
                  u2584 0616                    u2760 03EF                    u2840 0344                    u2761 03EE  
                  u2841 0343                    u3385 0193                    u2850 034B                    u3490 0223  
                  u2595 0617                    u2755 03E2                    u2851 034A                    u2835 0325  
                  u3491 0222                    u3475 020E                    u3395 01A5                    u2780 0400  
                  u2940 0691                    u2781 03FF                    u2941 0690                    u3485 0216  
                  u2790 0404                    u2870 0367                    u2791 0403                    u2775 03F4  
                  u2871 0366                    u2880 036F                    u2881 036E                    u2865 0357  
                  u2895 037C                    _WREN 0C62                    _main 0424                    _freq 005D  
          ___ftpack@arg 0020                    _duty 0065            ___ftpack@exp 0023                    btemp 007E  
                  start 0010            ___ftmul@cntr 0054            ___ftmul@sign 0055   __end_ofi1_update_duty 0645  
          ___fttol@exp1 0035            ___fttol@lval 0031                   ??_isr 0074                   ?_main 0070  
                 _CCP1X 00BD                   _CCP1Y 00BC                   _EEADR 010D         __end_of___ftadd 0153  
                 _CARRY 0018         __end_of___ftdiv 0301         __end_of___ftneg 0696         __end_of___ftmul 023D  
       __end_of___fttol 03A7                   _IRCF0 047C                   _IRCF1 047D                   _IRCF2 047E  
                 i1l461 0644                   i1l472 05E9                   i1l473 05F8                   i1l476 067B  
                 i1l477 067B                   _PORTA 0005                   _TRISA 0085                   _TRISB 0086  
                 _delta 0078                   _frexp 0576                   _errno 007A           ___ftpack@sign 0024  
                 _round 0497                   _trunc 052F                   pclath 000A                   status 0003  
                 wtemp0 007E            __end_of_main 0497                  ??_main 005D           ___fttol@sign1 0030  
                _ADCON1 009F                  _CCP1M2 00BA                  _CCP1M3 00BB                  ?_frexp 0020  
      __end_of___altoft 052F                  _EEDATA 010C                  _CCPR1L 0015                  _EECON1 018C  
                _EECON2 018D        __end_of___ftpack 0424                  ?_round 0057                  ?_trunc 004E  
                i1l2640 05BC                  i1l2642 05CE                  i1l2650 0679                  i1l2644 05DA  
                i1l2646 0674                  i1l2648 0678                  i1l2850 0642                  i1l2844 0620  
                i1l2846 062A                  i1l2848 0631                  u300_25 062B                  u301_20 0638  
                u301_21 0634                  u302_24 063B                  u303_25 063C                  u260_25 05C3  
                u261_20 05DA                  u261_21 05D9                  u261_25 05D6                  u262_20 0678  
                u262_21 0677        __end_of___lwtoft 0674                  u298_20 0627                  u298_21 0623  
                u299_24 062A                  _TMR0IE 005D                  _TMR0IF 005A                  _TMR2ON 0092  
             ??___ftadd 0047               ??___ftdiv 003C               ??___ftneg 0039               ??___ftmul 004C  
             ??___fttol 002C   __size_of_advance_wave 003D   ___ftmul@f3_as_product 0051            __pdataCOMMON 007C  
                saved_w 007E                  round@f 005A                  round@x 0057                  trunc@i 0052  
                trunc@x 004E              ___altoft@c 0039              ___ftadd@f1 0041              ___ftadd@f2 0044  
            ___ftdiv@f1 0039              ___ftdiv@f2 0036              ___ftdiv@f3 0041              ___ftneg@f1 0036  
          _advance_wave 05BC              ___ftmul@f1 0046              ___ftmul@f2 0049              ___fttol@f1 0028  
          ?_update_duty 0020          __pcstackCOMMON 0070            __pidataBANK0 0696           __end_of_frexp 05BC  
         __end_of_round 04E6           __end_of_trunc 0576              ___lwtoft@c 0036                 ??_frexp 0024  
               ??_round 005A                 ??_trunc 0051              __pnvCOMMON 0078        update_duty@value 0020  
            __pmaintext 0424              __pintentry 0004               ?___altoft 0039               ?___ftpack 0020  
               _T2CKPS0 0090                 _T2CKPS1 0091               ?___lwtoft 0036                 ___ftadd 0011  
               ___ftdiv 023D                 ___ftneg 0688                 ___ftmul 0153                 ___fttol 0301  
            ??___altoft 003D              ??___ftpack 0025              ??___lwtoft 0039            __size_of_isr 0014  
__size_ofi1_update_duty 0025    end_of_initialization 065B    __size_of_update_duty 0027      i1update_duty@value 0070  
           ___ftdiv@exp 0044             ___ftmul@exp 0050           i1_update_duty 0620           __pidataCOMMON 069E  
   start_initialization 0645             __end_of_isr 0688              frexp@value 0020          ?i1_update_duty 0070  
           __pdataBANK0 005D       __size_of___altoft 0049       __size_of___ftpack 007D             __pbssCOMMON 007A  
     __size_of___lwtoft 0017           __pcstackBANK0 0020               __pnvBANK0 0065                ?___ftadd 0041  
             __ptext430 0497               __ptext431 052F               __ptext440 0576               __ptext432 04E6  
             __ptext441 05F9               __ptext433 065D               __ptext442 0674               __ptext434 0153  
             __ptext443 05BC               __ptext435 023D               __ptext444 0620               __ptext436 0011  
             __ptext445 0000               __ptext437 0688               __ptext438 0301               __ptext439 03A7  
              ?___ftdiv 0036                ?___ftneg 0036                ?___ftmul 0046                ?___fttol 0028  
        __size_of_frexp 0046          __size_of_round 004F          __size_of_trunc 0047               _duty_max2 0063  
     interrupt_function 0004         ??i1_update_duty 0072               frexp@eptr 0023           ?_advance_wave 0070  
         ??_update_duty 0022        __size_of___ftadd 0142        __size_of___ftdiv 00C4        __size_of___ftneg 000E  
              ___altoft 04E6        __size_of___ftmul 00EA        __size_of___fttol 00A6                ___ftpack 03A7  
              ___lwtoft 065D              trunc@expon 0055           __size_of_main 0073                _duty_max 007C  
        ??_advance_wave 0072     __end_of_update_duty 0620             _sample_rate 0060                intlevel1 0000  
